
Board_Diagnostics.elf:     file format elf32-littlenios2
Board_Diagnostics.elf
architecture: nios2:r1, flags 0x00000112:
EXEC_P, HAS_SYMS, D_PAGED
start address 0x00800248

Program Header:
    LOAD off    0x00001000 vaddr 0x00800000 paddr 0x00800000 align 2**12
         filesz 0x00000020 memsz 0x00000020 flags r-x
    LOAD off    0x00001020 vaddr 0x00800020 paddr 0x00800020 align 2**12
         filesz 0x0001ccf0 memsz 0x0001ccf0 flags r-x
    LOAD off    0x0001dd10 vaddr 0x0081cd10 paddr 0x0081ea5c align 2**12
         filesz 0x00001d4c memsz 0x00001d4c flags rw-
    LOAD off    0x000207a8 vaddr 0x008207a8 paddr 0x008207a8 align 2**12
         filesz 0x00000000 memsz 0x00000178 flags rw-

Sections:
Idx Name          Size      VMA       LMA       File off  Algn
  0 .entry        00000020  00800000  00800000  00001000  2**5
                  CONTENTS, ALLOC, LOAD, READONLY, CODE
  1 .exceptions   00000228  00800020  00800020  00001020  2**2
                  CONTENTS, ALLOC, LOAD, READONLY, CODE
  2 .text         0001be14  00800248  00800248  00001248  2**2
                  CONTENTS, ALLOC, LOAD, READONLY, CODE
  3 .rodata       00000cb4  0081c05c  0081c05c  0001d05c  2**2
                  CONTENTS, ALLOC, LOAD, READONLY, DATA
  4 .rwdata       00001d4c  0081cd10  0081ea5c  0001dd10  2**2
                  CONTENTS, ALLOC, LOAD, DATA, SMALL_DATA
  5 .bss          00000178  008207a8  008207a8  000207a8  2**2
                  ALLOC, SMALL_DATA
  6 .sdram_0      00000000  00820920  00820920  0001fa5c  2**0
                  CONTENTS
  7 .comment      00000023  00000000  00000000  0001fa5c  2**0
                  CONTENTS, READONLY
  8 .debug_aranges 00001540  00000000  00000000  0001fa80  2**3
                  CONTENTS, READONLY, DEBUGGING
  9 .debug_info   0003acad  00000000  00000000  00020fc0  2**0
                  CONTENTS, READONLY, DEBUGGING
 10 .debug_abbrev 0000e561  00000000  00000000  0005bc6d  2**0
                  CONTENTS, READONLY, DEBUGGING
 11 .debug_line   00012dc2  00000000  00000000  0006a1ce  2**0
                  CONTENTS, READONLY, DEBUGGING
 12 .debug_frame  00003248  00000000  00000000  0007cf90  2**2
                  CONTENTS, READONLY, DEBUGGING
 13 .debug_str    00004cfa  00000000  00000000  000801d8  2**0
                  CONTENTS, READONLY, DEBUGGING
 14 .debug_loc    00026923  00000000  00000000  00084ed2  2**0
                  CONTENTS, READONLY, DEBUGGING
 15 .debug_alt_sim_info 00000060  00000000  00000000  000ab7f8  2**2
                  CONTENTS, READONLY, DEBUGGING
 16 .debug_ranges 00002328  00000000  00000000  000ab858  2**3
                  CONTENTS, READONLY, DEBUGGING
 17 .thread_model 00000003  00000000  00000000  000b1f5e  2**0
                  CONTENTS, READONLY
 18 .cpu          0000000c  00000000  00000000  000b1f61  2**0
                  CONTENTS, READONLY
 19 .qsys         00000001  00000000  00000000  000b1f6d  2**0
                  CONTENTS, READONLY
 20 .simulation_enabled 00000001  00000000  00000000  000b1f6e  2**0
                  CONTENTS, READONLY
 21 .sysid_hash   00000004  00000000  00000000  000b1f6f  2**0
                  CONTENTS, READONLY
 22 .sysid_base   00000004  00000000  00000000  000b1f73  2**0
                  CONTENTS, READONLY
 23 .sysid_time   00000004  00000000  00000000  000b1f77  2**0
                  CONTENTS, READONLY
 24 .stderr_dev   0000000b  00000000  00000000  000b1f7b  2**0
                  CONTENTS, READONLY
 25 .stdin_dev    0000000b  00000000  00000000  000b1f86  2**0
                  CONTENTS, READONLY
 26 .stdout_dev   0000000b  00000000  00000000  000b1f91  2**0
                  CONTENTS, READONLY
 27 .sopc_system_name 00000003  00000000  00000000  000b1f9c  2**0
                  CONTENTS, READONLY
 28 .quartus_project_dir 0000002f  00000000  00000000  000b1f9f  2**0
                  CONTENTS, READONLY
 29 .jdi          00004a3a  00000000  00000000  000b1fce  2**0
                  CONTENTS, READONLY
 30 .sopcinfo     0008f514  00000000  00000000  000b6a08  2**0
                  CONTENTS, READONLY
SYMBOL TABLE:
00800000 l    d  .entry	00000000 .entry
00800020 l    d  .exceptions	00000000 .exceptions
00800248 l    d  .text	00000000 .text
0081c05c l    d  .rodata	00000000 .rodata
0081cd10 l    d  .rwdata	00000000 .rwdata
008207a8 l    d  .bss	00000000 .bss
00820920 l    d  .sdram_0	00000000 .sdram_0
00000000 l    d  .comment	00000000 .comment
00000000 l    d  .debug_aranges	00000000 .debug_aranges
00000000 l    d  .debug_info	00000000 .debug_info
00000000 l    d  .debug_abbrev	00000000 .debug_abbrev
00000000 l    d  .debug_line	00000000 .debug_line
00000000 l    d  .debug_frame	00000000 .debug_frame
00000000 l    d  .debug_str	00000000 .debug_str
00000000 l    d  .debug_loc	00000000 .debug_loc
00000000 l    d  .debug_alt_sim_info	00000000 .debug_alt_sim_info
00000000 l    d  .debug_ranges	00000000 .debug_ranges
00000000 l    df *ABS*	00000000 ../Board_Diagnostics_bsp//obj/HAL/src/crt0.o
00800290 l       .text	00000000 alt_after_alt_main
00000000 l    df *ABS*	00000000 alt_irq_handler.c
00000000 l    df *ABS*	00000000 alt_instruction_exception_entry.c
00000000 l    df *ABS*	00000000 board_diag.c
00800294 l     F .text	0000006c MenuBegin
00800300 l     F .text	0000004c MenuItem
008003dc l     F .text	00000104 MenuEnd
008207a8 l     O .bss	00000004 entry.2854
008207ac l     O .bss	00000001 ch.2855
008004e0 l     F .text	000000b8 DoSevenSegMenu
008207ad l     O .bss	00000001 ch.2859
00800bd4 l     F .text	00000060 SevenSegCount
00800c34 l     F .text	00000234 SevenSegControl
00800598 l     F .text	00000164 TopMenu
008207ae l     O .bss	00000001 ch.2868
008006fc l     F .text	000000c4 TestLEDs
008007c0 l     F .text	00000100 TestLCD
008009cc l     F .text	00000184 TestButtons
008207af l     O .bss	00000004 entry.2883
008207b3 l     O .bss	00000001 ch.2882
008207b4 l     O .bss	00000004 entry.2891
008207b8 l     O .bss	00000001 ch.2890
008008c0 l     F .text	00000060 handle_button_interrupts
00800920 l     F .text	00000064 init_button_pio
00800984 l     F .text	00000048 disable_button_pio
00800b50 l     F .text	00000084 sevenseg_set_hex
0081cd10 l     O .rwdata	00000010 segments.2921
008207b9 l     O .bss	00000001 ch.2936
00000000 l    df *ABS*	00000000 fclose.c
00000000 l    df *ABS*	00000000 fflush.c
00000000 l    df *ABS*	00000000 findfp.c
00801274 l     F .text	00000008 __fp_unlock
00801288 l     F .text	0000019c __sinit.part.1
00801424 l     F .text	00000008 __fp_lock
00000000 l    df *ABS*	00000000 fopen.c
00000000 l    df *ABS*	00000000 fprintf.c
00000000 l    df *ABS*	00000000 mallocr.c
00000000 l    df *ABS*	00000000 fseek.c
00000000 l    df *ABS*	00000000 fseeko.c
00000000 l    df *ABS*	00000000 fstatr.c
00000000 l    df *ABS*	00000000 fwalk.c
00000000 l    df *ABS*	00000000 fwrite.c
00000000 l    df *ABS*	00000000 getc.c
00000000 l    df *ABS*	00000000 impure.c
0081cd20 l     O .rwdata	00000424 impure_data
00000000 l    df *ABS*	00000000 int_errno.c
00000000 l    df *ABS*	00000000 makebuf.c
00000000 l    df *ABS*	00000000 mallocr.c
00000000 l    df *ABS*	00000000 memset.c
00000000 l    df *ABS*	00000000 openr.c
00000000 l    df *ABS*	00000000 printf.c
00000000 l    df *ABS*	00000000 putchar.c
00000000 l    df *ABS*	00000000 puts.c
00000000 l    df *ABS*	00000000 refill.c
008030ac l     F .text	0000001c lflush
00000000 l    df *ABS*	00000000 rget.c
00000000 l    df *ABS*	00000000 sbrkr.c
00000000 l    df *ABS*	00000000 sscanf.c
00000000 l    df *ABS*	00000000 stdio.c
00000000 l    df *ABS*	00000000 strlen.c
00000000 l    df *ABS*	00000000 vfscanf.c
0081c56e l     O .rodata	00000022 basefix.4340
00000000 l    df *ABS*	00000000 vfprintf.c
0081c5d2 l     O .rodata	00000010 zeroes.4404
00807010 l     F .text	000000bc __sbprintf
0081c5e2 l     O .rodata	00000010 blanks.4403
00000000 l    df *ABS*	00000000 writer.c
00000000 l    df *ABS*	00000000 wsetup.c
00000000 l    df *ABS*	00000000 closer.c
00000000 l    df *ABS*	00000000 ctype_.c
0081c6f3 l     O .rodata	00000180 _ctype_b
00000000 l    df *ABS*	00000000 dtoa.c
008072d4 l     F .text	00000200 quorem
00000000 l    df *ABS*	00000000 flags.c
00000000 l    df *ABS*	00000000 fvwrite.c
00000000 l    df *ABS*	00000000 isattyr.c
00000000 l    df *ABS*	00000000 iswspace.c
00000000 l    df *ABS*	00000000 locale.c
0081d56c l     O .rwdata	00000020 lc_ctype_charset
0081d54c l     O .rwdata	00000020 lc_message_charset
0081d58c l     O .rwdata	00000038 lconv
00000000 l    df *ABS*	00000000 lseekr.c
00000000 l    df *ABS*	00000000 mbrtowc.c
00000000 l    df *ABS*	00000000 mbtowc_r.c
00000000 l    df *ABS*	00000000 memchr.c
00000000 l    df *ABS*	00000000 memcpy.c
00000000 l    df *ABS*	00000000 memmove.c
00000000 l    df *ABS*	00000000 mprec.c
0081c890 l     O .rodata	0000000c p05.2768
00000000 l    df *ABS*	00000000 putc.c
00000000 l    df *ABS*	00000000 readr.c
00000000 l    df *ABS*	00000000 mallocr.c
00000000 l    df *ABS*	00000000 s_fpclassify.c
00000000 l    df *ABS*	00000000 sccl.c
00000000 l    df *ABS*	00000000 sf_nan.c
00000000 l    df *ABS*	00000000 sprintf.c
00000000 l    df *ABS*	00000000 strcmp.c
00000000 l    df *ABS*	00000000 strtod.c
0080b244 l     F .text	00000064 sulp
0081c9d8 l     O .rodata	00000014 fpi.2737
0081c9ec l     O .rodata	00000028 tinytens
0081c9c4 l     O .rodata	00000014 fpinan.2773
00000000 l    df *ABS*	00000000 strtol.c
00000000 l    df *ABS*	00000000 strtoll_r.c
00000000 l    df *ABS*	00000000 strtoul.c
00000000 l    df *ABS*	00000000 strtoull_r.c
00000000 l    df *ABS*	00000000 vfscanf.c
0081ca14 l     O .rodata	00000022 basefix.3791
00000000 l    df *ABS*	00000000 vfprintf.c
0081ca36 l     O .rodata	00000010 zeroes.4389
0081ca46 l     O .rodata	00000010 blanks.4388
00000000 l    df *ABS*	00000000 ungetc.c
00000000 l    df *ABS*	00000000 vfprintf.c
00810c50 l     F .text	000000fc __sprint_r.part.0
0081ca66 l     O .rodata	00000010 blanks.4348
0081ca56 l     O .rodata	00000010 zeroes.4349
008121dc l     F .text	000000bc __sbprintf
00000000 l    df *ABS*	00000000 wbuf.c
00000000 l    df *ABS*	00000000 mallocr.c
00000000 l    df *ABS*	00000000 fputwc.c
00000000 l    df *ABS*	00000000 gdtoa-gethex.c
008126bc l     F .text	00000100 rshift
00000000 l    df *ABS*	00000000 gdtoa-hexnan.c
00000000 l    df *ABS*	00000000 strncmp.c
00000000 l    df *ABS*	00000000 vfprintf.c
0081cb86 l     O .rodata	00000010 blanks.4332
0081cb76 l     O .rodata	00000010 zeroes.4333
00000000 l    df *ABS*	00000000 wcrtomb.c
00000000 l    df *ABS*	00000000 wctomb_r.c
00000000 l    df *ABS*	00000000 libgcc2.c
00000000 l    df *ABS*	00000000 libgcc2.c
00000000 l    df *ABS*	00000000 libgcc2.c
00000000 l    df *ABS*	00000000 libgcc2.c
00000000 l    df *ABS*	00000000 lib2-divmod.c
00000000 l    df *ABS*	00000000 eqsf2.c
00000000 l    df *ABS*	00000000 gesf2.c
00000000 l    df *ABS*	00000000 lesf2.c
00000000 l    df *ABS*	00000000 adddf3.c
00000000 l    df *ABS*	00000000 divdf3.c
00000000 l    df *ABS*	00000000 eqdf2.c
00000000 l    df *ABS*	00000000 gedf2.c
00000000 l    df *ABS*	00000000 ledf2.c
00000000 l    df *ABS*	00000000 muldf3.c
00000000 l    df *ABS*	00000000 subdf3.c
00000000 l    df *ABS*	00000000 fixdfsi.c
00000000 l    df *ABS*	00000000 floatsidf.c
00000000 l    df *ABS*	00000000 floatunsidf.c
00000000 l    df *ABS*	00000000 truncdfsf2.c
00000000 l    df *ABS*	00000000 libgcc2.c
00000000 l    df *ABS*	00000000 libgcc2.c
00000000 l    df *ABS*	00000000 alt_close.c
00818050 l     F .text	0000003c alt_get_errno
00000000 l    df *ABS*	00000000 alt_dev.c
0081815c l     F .text	0000002c alt_dev_null_write
00000000 l    df *ABS*	00000000 alt_errno.c
00000000 l    df *ABS*	00000000 alt_fstat.c
00818188 l     F .text	0000003c alt_get_errno
00000000 l    df *ABS*	00000000 alt_irq_register.c
00000000 l    df *ABS*	00000000 alt_irq_vars.c
00000000 l    df *ABS*	00000000 alt_isatty.c
008183f4 l     F .text	0000003c alt_get_errno
00000000 l    df *ABS*	00000000 alt_load.c
008184d4 l     F .text	00000068 alt_load_section
00000000 l    df *ABS*	00000000 alt_lseek.c
008185c0 l     F .text	0000003c alt_get_errno
00000000 l    df *ABS*	00000000 alt_main.c
00000000 l    df *ABS*	00000000 alt_malloc_lock.c
00000000 l    df *ABS*	00000000 alt_open.c
00818794 l     F .text	0000003c alt_get_errno
008187d0 l     F .text	000000c4 alt_file_locked
00000000 l    df *ABS*	00000000 alt_read.c
008189e8 l     F .text	0000003c alt_get_errno
00000000 l    df *ABS*	00000000 alt_release_fd.c
00000000 l    df *ABS*	00000000 alt_sbrk.c
0081ea4c l     O .rwdata	00000004 heap_end
00000000 l    df *ABS*	00000000 alt_usleep.c
00000000 l    df *ABS*	00000000 alt_write.c
00818c64 l     F .text	0000003c alt_get_errno
00000000 l    df *ABS*	00000000 alt_sys_init.c
00818d98 l     F .text	00000034 alt_dev_reg
0081d76c l     O .rwdata	00001060 jtag_uart_0
0081e7cc l     O .rwdata	00000120 lcd_display
0081e8ec l     O .rwdata	000000c4 uart
0081e9b0 l     O .rwdata	00000030 audio_i2c_config
0081e9e0 l     O .rwdata	00000030 Audio
00000000 l    df *ABS*	00000000 altera_avalon_jtag_uart_fd.c
00000000 l    df *ABS*	00000000 altera_avalon_jtag_uart_init.c
008190d0 l     F .text	00000210 altera_avalon_jtag_uart_irq
008192e0 l     F .text	000000a0 altera_avalon_jtag_uart_timeout
00000000 l    df *ABS*	00000000 altera_avalon_jtag_uart_ioctl.c
00000000 l    df *ABS*	00000000 altera_avalon_jtag_uart_read.c
00000000 l    df *ABS*	00000000 altera_avalon_jtag_uart_write.c
00000000 l    df *ABS*	00000000 altera_avalon_lcd_16207.c
0081ea50 l     O .rwdata	00000004 colstart
00819918 l     F .text	000000b8 lcd_write_command
008199d0 l     F .text	000000d8 lcd_write_data
00819aa8 l     F .text	000000d0 lcd_clear_screen
00819b78 l     F .text	000001ec lcd_repaint_screen
00819d64 l     F .text	000000cc lcd_scroll_up
00819e30 l     F .text	000002ac lcd_handle_escape
0081a5b4 l     F .text	000000ac alt_lcd_16207_timeout
00000000 l    df *ABS*	00000000 altera_avalon_lcd_16207_fd.c
00000000 l    df *ABS*	00000000 altera_avalon_timer_sc.c
0081a7f4 l     F .text	0000007c alt_avalon_timer_sc_irq
00000000 l    df *ABS*	00000000 altera_avalon_uart_fd.c
00000000 l    df *ABS*	00000000 altera_avalon_uart_init.c
0081aa98 l     F .text	000000a0 altera_avalon_uart_irq
0081ab38 l     F .text	000000e4 altera_avalon_uart_rxirq
0081ac1c l     F .text	00000148 altera_avalon_uart_txirq
00000000 l    df *ABS*	00000000 altera_avalon_uart_read.c
0081adb8 l     F .text	0000003c alt_get_errno
00000000 l    df *ABS*	00000000 altera_avalon_uart_write.c
0081afd0 l     F .text	0000003c alt_get_errno
00000000 l    df *ABS*	00000000 alt_alarm_start.c
00000000 l    df *ABS*	00000000 alt_busy_sleep.c
00000000 l    df *ABS*	00000000 alt_dcache_flush_all.c
00000000 l    df *ABS*	00000000 alt_dev_llist_insert.c
0081b484 l     F .text	0000003c alt_get_errno
00000000 l    df *ABS*	00000000 alt_do_ctors.c
00000000 l    df *ABS*	00000000 alt_do_dtors.c
00000000 l    df *ABS*	00000000 alt_find_dev.c
00000000 l    df *ABS*	00000000 alt_find_file.c
00000000 l    df *ABS*	00000000 alt_get_fd.c
00000000 l    df *ABS*	00000000 alt_icache_flush_all.c
00000000 l    df *ABS*	00000000 alt_io_redirect.c
0081b894 l     F .text	000000c4 alt_open_fd
00000000 l    df *ABS*	00000000 alt_tick.c
00000000 l    df *ABS*	00000000 altera_nios2_gen2_irq.c
00000000 l    df *ABS*	00000000 alt_icache_flush.c
00000000 l    df *ABS*	00000000 atexit.c
00000000 l    df *ABS*	00000000 exit.c
00000000 l    df *ABS*	00000000 memcmp.c
00000000 l    df *ABS*	00000000 __atexit.c
00000000 l    df *ABS*	00000000 __call_atexit.c
00000000 l    df *ABS*	00000000 alt_exit.c
008207f4 g     O .bss	00000004 alt_instruction_exception_handler
00802fc0 g     F .text	00000018 putchar
0080a6b4 g     F .text	00000074 _mprec_log10
0080a7a0 g     F .text	0000008c __any_on
008090c4 g     F .text	00000054 _isatty_r
0081c89c g     O .rodata	00000028 __mprec_tinytens
008186d0 g     F .text	0000007c alt_main
00802fd8 g     F .text	000000c0 _puts_r
00820820 g     O .bss	00000100 alt_irq
00809224 g     F .text	00000060 _lseek_r
0081ea5c g       *ABS*	00000000 __flash_rwdata_start
00808b5c g     F .text	000000ac __sflags
008169d4 g     F .text	00000088 .hidden __eqdf2
00820920 g       *ABS*	00000000 __alt_heap_start
00802f7c g     F .text	0000003c printf
00814724 g     F .text	0000009c _wcrtomb_r
00803544 g     F .text	0000005c __sseek
008015c4 g     F .text	00000010 __sinit
00812298 g     F .text	00000140 __swbuf_r
00809148 g     F .text	0000007c _setlocale_r
0080142c g     F .text	00000068 __sfmoreglue
00810c38 g     F .text	00000018 ungetc
00818770 g     F .text	00000024 __malloc_unlock
0080b2a8 g     F .text	000015f8 _strtod_r
0080034c g     F .text	00000090 GetInputString
0080d610 g     F .text	000000f4 _sfread_r
008096d4 g     F .text	0000015c memmove
008015ac g     F .text	00000018 _cleanup
00809830 g     F .text	000000a8 _Balloc
00816a5c g     F .text	000000dc .hidden __gtdf2
0081bb78 g     F .text	00000024 altera_nios2_gen2_irq_init
00800000 g     F .entry	0000001c __reset
008207bc g     O .bss	00000004 edge_capture
00800020 g       *ABS*	00000000 __flash_exceptions_start
00802020 g     F .text	0000005c _fstat_r
008207c0 g     O .bss	00000004 errno
00803310 g     F .text	00000014 __srget
008034c0 g     F .text	00000008 __seofread
008134e8 g     F .text	0000123c ___svfiprintf_internal_r
008207e4 g     O .bss	00000004 alt_argv
00826a10 g       *ABS*	00000000 _gp
00818c34 g     F .text	00000030 usleep
0081d5ec g     O .rwdata	00000180 alt_fd_list
00802304 g     F .text	00000070 _getc_r
00802374 g     F .text	00000088 getc
00802fb8 g     F .text	00000008 _putchar_r
0081b624 g     F .text	00000090 alt_find_dev
0080958c g     F .text	00000148 memcpy
00812fec g     F .text	0000025c __hexnan
0080127c g     F .text	0000000c _cleanup_r
00817cc0 g     F .text	000000dc .hidden __floatsidf
0081b958 g     F .text	0000007c alt_io_redirect
00816b38 g     F .text	000000f4 .hidden __ltdf2
0081c05c g       *ABS*	00000000 __DTOR_END__
00803098 g     F .text	00000014 puts
0081bc2c g     F .text	0000009c alt_exception_cause_generated_bad_addr
00809330 g     F .text	000000d8 mbrtowc
0080af58 g     F .text	00000074 __fpclassifyd
0080a610 g     F .text	000000a4 __ratio
008121c0 g     F .text	0000001c __vfiprintf_internal
008194d8 g     F .text	0000021c altera_avalon_jtag_uart_read
00802f4c g     F .text	00000030 _printf_r
00815588 g     F .text	00000064 .hidden __udivsi3
00818430 g     F .text	000000a4 isatty
00809118 g     F .text	00000030 iswspace
0081c8ec g     O .rodata	000000c8 __mprec_tens
008091c4 g     F .text	0000000c __locale_charset
00815778 g     F .text	000000c8 .hidden __lesf2
0081496c g     F .text	00000074 .hidden __fixunsdfsi
0081bb9c g     F .text	00000090 alt_icache_flush
008207cc g     O .bss	00000004 __malloc_top_pad
0080d5a0 g     F .text	00000070 __ssrefill_r
0080d15c g     F .text	0000001c strtoul
0081ea24 g     O .rwdata	00000004 __mb_cur_max
008091f4 g     F .text	0000000c _localeconv_r
0080d178 g     F .text	00000320 _strtoull_r
00809c3c g     F .text	0000003c __i2b
00808c08 g     F .text	000004bc __sfvwrite_r
00803324 g     F .text	00000054 _sbrk_r
0080a994 g     F .text	00000060 _read_r
0081ea40 g     O .rwdata	00000004 alt_max_fd
00800ec8 g     F .text	000000f0 _fclose_r
00801244 g     F .text	00000030 fflush
008207c8 g     O .bss	00000004 __malloc_max_sbrked_mem
00818274 g     F .text	00000180 alt_irq_register
00803640 g     F .text	000017bc __ssvfscanf_r
00815840 g     F .text	000008ac .hidden __adddf3
00815644 g     F .text	00000078 .hidden __nesf2
0080a3b8 g     F .text	0000010c __b2d
00814f58 g     F .text	00000538 .hidden __umoddi3
008185fc g     F .text	000000d4 lseek
0081ea10 g     O .rwdata	00000004 _global_impure_ptr
0080a9f4 g     F .text	00000564 _realloc_r
00820920 g       *ABS*	00000000 __bss_end
0081ba70 g     F .text	00000108 alt_tick
0081ca76 g     O .rodata	00000100 __hexdig
008149e0 g     F .text	00000578 .hidden __udivdi3
00812618 g     F .text	00000024 _fputwc_r
0081c8c4 g     O .rodata	00000028 __mprec_bigtens
00809a20 g     F .text	00000104 __s2b
00817d9c g     F .text	000000a8 .hidden __floatunsidf
0080a0f8 g     F .text	00000060 __mcmp
0081a9f4 g     F .text	000000a4 altera_avalon_uart_init
008015e4 g     F .text	00000018 __fp_lock_all
0081b9d4 g     F .text	0000009c alt_alarm_stop
0080cbf0 g     F .text	0000001c strtol
008207dc g     O .bss	00000004 alt_irq_active
00801bc0 g     F .text	00000444 _fseeko_r
008000fc g     F .exceptions	000000d8 alt_irq_handler
0081d5c4 g     O .rwdata	00000028 alt_dev_null
0081b43c g     F .text	00000048 alt_dcache_flush_all
00809b24 g     F .text	00000068 __hi0bits
00817c40 g     F .text	00000080 .hidden __fixdfsi
0080c8a0 g     F .text	00000018 strtod
0081ea5c g       *ABS*	00000000 __ram_rwdata_end
0081ea38 g     O .rwdata	00000008 alt_dev_list
00818ca0 g     F .text	000000f8 write
0080a82c g     F .text	000000a0 _putc_r
008156bc g     F .text	000000bc .hidden __gtsf2
0081cd10 g       *ABS*	00000000 __ram_rodata_end
008181c4 g     F .text	000000b0 fstat
00801748 g     F .text	00000024 fprintf
00816b38 g     F .text	000000f4 .hidden __ledf2
00809e70 g     F .text	00000140 __pow5mult
00810d64 g     F .text	0000145c ___vfiprintf_internal_r
008207d8 g     O .bss	00000004 __nlocale_changed
008155ec g     F .text	00000058 .hidden __umodsi3
00820920 g       *ABS*	00000000 end
0081a0dc g     F .text	000004d8 altera_avalon_lcd_16207_write
00802004 g     F .text	0000001c fseeko
0081b00c g     F .text	000001ac altera_avalon_uart_write
00801ba4 g     F .text	0000001c fseek
0081901c g     F .text	000000b4 altera_avalon_jtag_uart_init
008001d4 g     F .exceptions	00000074 alt_instruction_exception_entry
0081c05c g       *ABS*	00000000 __CTOR_LIST__
01000000 g       *ABS*	00000000 __alt_stack_pointer
0081a870 g     F .text	00000074 alt_avalon_timer_sc_init
0081a944 g     F .text	00000060 altera_avalon_uart_write_fd
00817fec g     F .text	00000064 .hidden __clzsi2
0081a9a4 g     F .text	00000050 altera_avalon_uart_close_fd
008196f4 g     F .text	00000224 altera_avalon_jtag_uart_write
008015d4 g     F .text	00000004 __sfp_lock_acquire
008094a8 g     F .text	000000e4 memchr
00804dfc g     F .text	000021f8 ___vfprintf_internal_r
0080b0a4 g     F .text	00000058 _sprintf_r
00801890 g     F .text	00000310 _free_r
008091d0 g     F .text	00000010 __locale_mb_cur_max
0081bea8 g     F .text	00000180 __call_exitprocs
0080329c g     F .text	00000074 __srget_r
0080d498 g     F .text	00000108 _sungetc_r
008207d4 g     O .bss	00000004 __mlocale_changed
0081ea18 g     O .rwdata	00000004 __malloc_sbrk_base
00800248 g     F .text	0000004c _start
008207ec g     O .bss	00000004 _alt_tick_rate
0080cc0c g     F .text	00000304 _strtoll_r
00809fb0 g     F .text	00000148 __lshift
008207f0 g     O .bss	00000004 _alt_nticks
00818a24 g     F .text	000000fc read
00818e04 g     F .text	000000b4 alt_sys_init
00813318 g     F .text	000001d0 __ssprint_r
00802eec g     F .text	00000060 _open_r
0081bd90 g     F .text	00000118 __register_exitproc
00813248 g     F .text	000000d0 strncmp
00809c78 g     F .text	000001f8 __multiply
00819380 g     F .text	00000068 altera_avalon_jtag_uart_close
0081cd10 g       *ABS*	00000000 __ram_rwdata_start
0081c05c g       *ABS*	00000000 __ram_rodata_start
008207f8 g     O .bss	00000028 __malloc_current_mallinfo
00815644 g     F .text	00000078 .hidden __eqsf2
0080a4c4 g     F .text	0000014c __d2b
00818eb8 g     F .text	00000060 altera_avalon_jtag_uart_read_fd
0080cf10 g     F .text	0000024c _strtoul_r
0081b7bc g     F .text	000000a4 alt_get_fd
0081b2e4 g     F .text	00000158 alt_busy_sleep
00807280 g     F .text	00000054 _close_r
0081bd14 g     F .text	0000007c memcmp
00818f78 g     F .text	00000050 altera_avalon_jtag_uart_close_fd
00820920 g       *ABS*	00000000 __alt_stack_base
00818fc8 g     F .text	00000054 altera_avalon_jtag_uart_ioctl_fd
00802204 g     F .text	000000cc _fwrite_r
00803378 g     F .text	0000007c sscanf
0080712c g     F .text	00000154 __swsetup_r
008160ec g     F .text	000008e8 .hidden __divdf3
00801494 g     F .text	00000118 __sfp
0080a728 g     F .text	00000078 __copybits
0081d144 g     O .rwdata	00000408 __malloc_av_
008015e0 g     F .text	00000004 __sinit_lock_release
00816c2c g     F .text	00000718 .hidden __muldf3
0080346c g     F .text	00000054 __sread
0081b6b4 g     F .text	00000108 alt_find_file
0081b4c0 g     F .text	000000a4 alt_dev_llist_insert
0081874c g     F .text	00000024 __malloc_lock
00801720 g     F .text	00000028 _fprintf_r
00818b84 g     F .text	000000b0 sbrk
0080e7f8 g     F .text	000021d8 ___svfprintf_internal_r
008011e8 g     F .text	0000005c _fflush_r
008123f0 g     F .text	000000c4 _calloc_r
00801708 g     F .text	00000018 fopen
008207a8 g       *ABS*	00000000 __bss_start
00802dc4 g     F .text	00000128 memset
00800e68 g     F .text	00000060 main
008207e8 g     O .bss	00000004 alt_envp
008207c4 g     O .bss	00000004 __malloc_max_total_mem
00818f18 g     F .text	00000060 altera_avalon_jtag_uart_write_fd
008123d8 g     F .text	00000018 __swbuf
00815778 g     F .text	000000c8 .hidden __ltsf2
0081a660 g     F .text	00000134 altera_avalon_lcd_16207_init
008035a0 g     F .text	00000008 __sclose
01000000 g       *ABS*	00000000 __alt_heap_limit
00800fb8 g     F .text	00000014 fclose
0080c9b8 g     F .text	00000238 _strtol_r
00817e44 g     F .text	000001a8 .hidden __truncdfsf2
008074d4 g     F .text	00001688 _dtoa_r
008025b8 g     F .text	0000080c _malloc_r
00814880 g     F .text	00000030 __ascii_wctomb
0081ea44 g     O .rwdata	00000004 alt_errno
008109d0 g     F .text	000000d4 __submore
0080207c g     F .text	000000c4 _fwalk
0080944c g     F .text	0000005c _mbtowc_r
0080a8cc g     F .text	000000c8 putc
00815490 g     F .text	00000084 .hidden __divsi3
0080176c g     F .text	00000124 _malloc_trim_r
0081c05c g       *ABS*	00000000 __CTOR_END__
0080b168 g     F .text	000000dc strcmp
0081c05c g       *ABS*	00000000 __flash_rodata_start
0081c05c g       *ABS*	00000000 __DTOR_LIST__
008169d4 g     F .text	00000088 .hidden __nedf2
00818dcc g     F .text	00000038 alt_irq_init
00818b20 g     F .text	00000064 alt_release_fd
0080b0fc g     F .text	0000006c sprintf
0081cb96 g     O .rodata	00000100 .hidden __clz_tab
008207d0 g     O .bss	00000004 _PathLocale
0080c8b8 g     F .text	00000100 strtof
0081bcc8 g     F .text	00000014 atexit
008156bc g     F .text	000000bc .hidden __gesf2
008070cc g     F .text	00000060 _write_r
00809200 g     F .text	00000018 setlocale
0080b09c g     F .text	00000008 nanf
0081ea14 g     O .rwdata	00000004 _impure_ptr
008207e0 g     O .bss	00000004 alt_argc
00800fcc g     F .text	0000021c __sflush_r
00809284 g     F .text	000000ac _mbrtowc_r
0081b5c4 g     F .text	00000060 _do_dtors
008091ec g     F .text	00000008 __locale_cjk_lang
00801ba0 g     F .text	00000004 _fseek_r
008030c8 g     F .text	000001d4 __srefill_r
00800000 g       *ABS*	00000000 __alt_mem_sdram_0
00800020 g       .exceptions	00000000 alt_irq_entry
00809408 g     F .text	00000044 __ascii_mbtowc
0080a354 g     F .text	00000064 __ulp
008015fc g     F .text	00000018 __fp_unlock_all
0081a794 g     F .text	00000060 altera_avalon_lcd_16207_write_fd
0081ea30 g     O .rwdata	00000008 alt_fs_list
0080d704 g     F .text	000010f4 __ssvfiscanf_r
00800020 g       *ABS*	00000000 __ram_exceptions_start
00809218 g     F .text	0000000c localeconv
008022d0 g     F .text	00000034 fwrite
008033f4 g     F .text	00000078 _sscanf_r
0081ea5c g       *ABS*	00000000 _edata
0081a8e4 g     F .text	00000060 altera_avalon_uart_read_fd
00820920 g       *ABS*	00000000 _end
008124b4 g     F .text	00000164 __fputwc
00800248 g       *ABS*	00000000 __ram_exceptions_end
008193e8 g     F .text	000000f0 altera_avalon_jtag_uart_ioctl
008034c8 g     F .text	0000007c __swrite
0081ea1c g     O .rwdata	00000004 __malloc_trim_threshold
008091e0 g     F .text	0000000c __locale_msgcharset
0081bcdc g     F .text	00000038 exit
00802140 g     F .text	000000c4 _fwalk_reent
0080a158 g     F .text	000001fc __mdiff
00815514 g     F .text	00000074 .hidden __modsi3
0081ea20 g     O .rwdata	00000004 __ctype_ptr__
01000000 g       *ABS*	00000000 __alt_data_end
00800020 g     F .exceptions	00000000 alt_exception
008015d8 g     F .text	00000004 __sfp_lock_release
0080afcc g     F .text	000000d0 __sccl
0081c5f2 g     O .rodata	00000101 _ctype_
0081ea28 g     O .rwdata	00000004 __mbtowc
0081ad64 g     F .text	00000054 altera_avalon_uart_close
00801614 g     F .text	000000f4 _fopen_r
0081c028 g     F .text	00000034 _exit
0081b1b8 g     F .text	0000012c alt_alarm_start
0081490c g     F .text	00000060 .hidden __muldi3
008023fc g     F .text	000001bc __smakebuf_r
008035a8 g     F .text	00000098 strlen
00818894 g     F .text	00000154 open
00816a5c g     F .text	000000dc .hidden __gedf2
008127bc g     F .text	00000830 __gethex
0081ea2c g     O .rwdata	00000004 __wctomb
00810d4c g     F .text	00000018 __sprint_r
0081b860 g     F .text	00000034 alt_icache_flush_all
0081ea48 g     O .rwdata	00000004 alt_priority_mask
00806ff4 g     F .text	0000001c __vfprintf_internal
0081adf4 g     F .text	000001dc altera_avalon_uart_read
008148b0 g     F .text	0000005c _wctomb_r
00817344 g     F .text	000008fc .hidden __subdf3
00809b8c g     F .text	000000b0 __lo0bits
0081ea54 g     O .rwdata	00000008 alt_alarm_list
00810aa4 g     F .text	00000194 _ungetc_r
0081b564 g     F .text	00000060 _do_ctors
008147c0 g     F .text	000000c0 wcrtomb
0081808c g     F .text	000000d0 close
0081853c g     F .text	00000084 alt_load
0081263c g     F .text	00000080 fputwc
008015dc g     F .text	00000004 __sinit_lock_acquire
00809900 g     F .text	00000120 __multadd
008098d8 g     F .text	00000028 _Bfree



Disassembly of section .entry:

00800000 <__reset>:
#if NIOS2_ICACHE_SIZE > 0 && defined(ALT_ALLOW_CODE_AT_RESET) && (!defined(ALT_SIM_OPTIMIZE) || defined(NIOS2_ECC_PRESENT))
    /* Assume the instruction cache size is always a power of two. */
#if NIOS2_ICACHE_SIZE > 0x8000
    movhi r2, %hi(NIOS2_ICACHE_SIZE)
#else
    movui r2, NIOS2_ICACHE_SIZE
  800000:	00840014 	movui	r2,4096
#endif

0:
    initi r2
  800004:	1001483a 	initi	r2
    addi r2, r2, -NIOS2_ICACHE_LINE_SIZE
  800008:	10bff804 	addi	r2,r2,-32
    bgt r2, zero, 0b
  80000c:	00bffd16 	blt	zero,r2,800004 <__alt_data_end+0xff800004>
 * Jump to the _start entry point in the .text section if reset code
 * is allowed or if optimizing for RTL simulation.
 */
#if defined(ALT_ALLOW_CODE_AT_RESET) || defined(ALT_SIM_OPTIMIZE)
    /* Jump to the _start entry point in the .text section. */
    movhi r1, %hi(_start)
  800010:	00402034 	movhi	at,128
    ori r1, r1, %lo(_start)
  800014:	08409214 	ori	at,at,584
    jmp r1
  800018:	0800683a 	jmp	at
  80001c:	00000000 	call	0 <__alt_mem_sdram_0-0x800000>

Disassembly of section .exceptions:

00800020 <alt_exception>:

#else /* ALT_EXCEPTION_STACK disabled */
        /* 
         * Reserve space on normal stack for registers about to be pushed.
         */
        addi  sp, sp, -76
  800020:	deffed04 	addi	sp,sp,-76
         * documentation for details).
         *
         * Leave a gap in the stack frame at 4(sp) for the muldiv handler to
         * store zero into.
         */
        stw   ra,  0(sp)
  800024:	dfc00015 	stw	ra,0(sp)
        stw   r1,   8(sp)
  800028:	d8400215 	stw	at,8(sp)
        stw   r2,  12(sp)
  80002c:	d8800315 	stw	r2,12(sp)
        stw   r3,  16(sp)
  800030:	d8c00415 	stw	r3,16(sp)
        stw   r4,  20(sp)
  800034:	d9000515 	stw	r4,20(sp)
        stw   r5,  24(sp)
  800038:	d9400615 	stw	r5,24(sp)
        stw   r6,  28(sp)
  80003c:	d9800715 	stw	r6,28(sp)
        stw   r7,  32(sp)
  800040:	d9c00815 	stw	r7,32(sp)
        rdctl r5, estatus   /* Read early to avoid usage stall */
  800044:	000b307a 	rdctl	r5,estatus
        stw   r8,  36(sp)
  800048:	da000915 	stw	r8,36(sp)
        stw   r9,  40(sp)
  80004c:	da400a15 	stw	r9,40(sp)
        stw   r10, 44(sp)
  800050:	da800b15 	stw	r10,44(sp)
        stw   r11, 48(sp)
  800054:	dac00c15 	stw	r11,48(sp)
        stw   r12, 52(sp)
  800058:	db000d15 	stw	r12,52(sp)
        stw   r13, 56(sp)
  80005c:	db400e15 	stw	r13,56(sp)
        stw   r14, 60(sp)
  800060:	db800f15 	stw	r14,60(sp)
        stw   r15, 64(sp)
  800064:	dbc01015 	stw	r15,64(sp)
        /*
         * ea-4 contains the address of the instruction being executed
         * when the exception occured. For interrupt exceptions, we will
         * will be re-issue the isntruction. Store it in 72(sp)
         */
        stw   r5,  68(sp)  /* estatus */
  800068:	d9401115 	stw	r5,68(sp)
        addi  r15, ea, -4  /* instruction that caused exception */
  80006c:	ebffff04 	addi	r15,ea,-4
        stw   r15,  72(sp)
  800070:	dbc01215 	stw	r15,72(sp)
#else
        /*
         * Test to see if the exception was a software exception or caused 
         * by an external interrupt, and vector accordingly.
         */
        rdctl r4, ipending
  800074:	0009313a 	rdctl	r4,ipending
        andi  r2, r5, 1
  800078:	2880004c 	andi	r2,r5,1
        beq   r2, zero, .Lnot_irq
  80007c:	10000326 	beq	r2,zero,80008c <alt_exception+0x6c>
        beq   r4, zero, .Lnot_irq
  800080:	20000226 	beq	r4,zero,80008c <alt_exception+0x6c>
        /*
         * Now that all necessary registers have been preserved, call 
         * alt_irq_handler() to process the interrupts.
         */

        call alt_irq_handler
  800084:	08000fc0 	call	8000fc <alt_irq_handler>

        .section .exceptions.irqreturn, "xa"

        br    .Lexception_exit
  800088:	00000706 	br	8000a8 <alt_exception+0x88>
         * upon completion, so we write ea (address of instruction *after*
         * the one where the exception occured) into 72(sp). The actual
         * instruction that caused the exception is written in r2, which these
         * handlers will utilize.
         */
        stw ea, 72(sp) /* EA is PC+4 so will skip over instruction causing exception */
  80008c:	df401215 	stw	ea,72(sp)
.Lunknown_16bit:
        addi.n r4, r4, 2 /* Need PC+2 to skip over instruction causing exception */
        stw r4, 72(sp)

#else /* CDX is not Enabled and all instructions are 32bits */
        ldw r2, -4(ea) /* Instruction value that caused exception */
  800090:	e8bfff17 	ldw	r2,-4(ea)
         * debugger is present) or go into an infinite loop since the
         * handling behavior is undefined; in that case we will not return here.
         */

        /* Load exception-causing address as first argument (r4) */
        addi   r4, ea, -4
  800094:	e93fff04 	addi	r4,ea,-4

        /* Call the instruction-exception entry */
        call   alt_instruction_exception_entry
  800098:	08001d40 	call	8001d4 <alt_instruction_exception_entry>
         * instruction
         *
         * Return code was 0: Skip. The instruction after the exception is
         * already stored in 72(sp).
         */
        bne   r2, r0, .Lexception_exit
  80009c:	1000021e 	bne	r2,zero,8000a8 <alt_exception+0x88>

        /*
         * Otherwise, modify 72(sp) to re-issue the instruction that caused the
         * exception.
         */
        addi  r15, ea, -4  /* instruction that caused exception */
  8000a0:	ebffff04 	addi	r15,ea,-4
        stw   r15,  72(sp)
  8000a4:	dbc01215 	stw	r15,72(sp)
        /* 
         * Restore the saved registers, so that all general purpose registers 
         * have been restored to their state at the time the interrupt occured.
         */

        ldw   r5,  68(sp)
  8000a8:	d9401117 	ldw	r5,68(sp)
        ldw   ea,  72(sp)  /* This becomes the PC once eret is executed */
  8000ac:	df401217 	ldw	ea,72(sp)
        ldw   ra,   0(sp)
  8000b0:	dfc00017 	ldw	ra,0(sp)

        wrctl estatus, r5
  8000b4:	2801707a 	wrctl	estatus,r5

        ldw   r1,   8(sp)
  8000b8:	d8400217 	ldw	at,8(sp)
        ldw   r2,  12(sp)
  8000bc:	d8800317 	ldw	r2,12(sp)
        ldw   r3,  16(sp)
  8000c0:	d8c00417 	ldw	r3,16(sp)
        ldw   r4,  20(sp)
  8000c4:	d9000517 	ldw	r4,20(sp)
        ldw   r5,  24(sp)
  8000c8:	d9400617 	ldw	r5,24(sp)
        ldw   r6,  28(sp)
  8000cc:	d9800717 	ldw	r6,28(sp)
        ldw   r7,  32(sp)
  8000d0:	d9c00817 	ldw	r7,32(sp)

#if defined(ALT_EXCEPTION_STACK) && defined(ALT_STACK_CHECK)
        ldw   et, %gprel(alt_exception_old_stack_limit)(gp)
#endif

        ldw   r8,  36(sp)
  8000d4:	da000917 	ldw	r8,36(sp)
        ldw   r9,  40(sp)
  8000d8:	da400a17 	ldw	r9,40(sp)
        ldw   r10, 44(sp)
  8000dc:	da800b17 	ldw	r10,44(sp)
        ldw   r11, 48(sp)
  8000e0:	dac00c17 	ldw	r11,48(sp)
        ldw   r12, 52(sp)
  8000e4:	db000d17 	ldw	r12,52(sp)
        ldw   r13, 56(sp)
  8000e8:	db400e17 	ldw	r13,56(sp)
        ldw   r14, 60(sp)
  8000ec:	db800f17 	ldw	r14,60(sp)
        ldw   r15, 64(sp)
  8000f0:	dbc01017 	ldw	r15,64(sp)
        stw   et, %gprel(alt_stack_limit_value)(gp)
        stw   zero, %gprel(alt_exception_old_stack_limit)(gp)
#endif /* ALT_STACK_CHECK */
        ldw   sp,  76(sp)
#else /* ALT_EXCEPTION_STACK disabled */
        addi  sp, sp, 76
  8000f4:	dec01304 	addi	sp,sp,76

        /*
         * Return to the interrupted instruction.
         */

        eret
  8000f8:	ef80083a 	eret

008000fc <alt_irq_handler>:
 * instruction is present if the macro ALT_CI_INTERRUPT_VECTOR defined.
 */

void alt_irq_handler (void) __attribute__ ((section (".exceptions")));
void alt_irq_handler (void)
{
  8000fc:	defff904 	addi	sp,sp,-28
  800100:	dfc00615 	stw	ra,24(sp)
  800104:	df000515 	stw	fp,20(sp)
  800108:	df000504 	addi	fp,sp,20
  
  /*
   * Notify the operating system that we are at interrupt level.
   */ 
  
  ALT_OS_INT_ENTER();
  80010c:	0001883a 	nop
#ifndef NIOS2_EIC_PRESENT
static ALT_INLINE alt_u32 ALT_ALWAYS_INLINE alt_irq_pending (void)
{
  alt_u32 active;

  NIOS2_READ_IPENDING (active);
  800110:	0005313a 	rdctl	r2,ipending
  800114:	e0bffe15 	stw	r2,-8(fp)

  return active;
  800118:	e0bffe17 	ldw	r2,-8(fp)
   * Consider the case where the high priority interupt is asserted during
   * the interrupt entry sequence for a lower priority interrupt to see why
   * this is the case.
   */

  active = alt_irq_pending ();
  80011c:	e0bffb15 	stw	r2,-20(fp)

  do
  {
    i = 0;
  800120:	e03ffd15 	stw	zero,-12(fp)
    mask = 1;
  800124:	00800044 	movi	r2,1
  800128:	e0bffc15 	stw	r2,-16(fp)
     * called to clear the interrupt condition.
     */

    do
    {
      if (active & mask)
  80012c:	e0fffb17 	ldw	r3,-20(fp)
  800130:	e0bffc17 	ldw	r2,-16(fp)
  800134:	1884703a 	and	r2,r3,r2
  800138:	10001526 	beq	r2,zero,800190 <alt_irq_handler+0x94>
      { 
#ifdef ALT_ENHANCED_INTERRUPT_API_PRESENT
        alt_irq[i].handler(alt_irq[i].context); 
#else
        alt_irq[i].handler(alt_irq[i].context, i); 
  80013c:	008020b4 	movhi	r2,130
  800140:	10820804 	addi	r2,r2,2080
  800144:	e0fffd17 	ldw	r3,-12(fp)
  800148:	180690fa 	slli	r3,r3,3
  80014c:	10c5883a 	add	r2,r2,r3
  800150:	10c00017 	ldw	r3,0(r2)
  800154:	008020b4 	movhi	r2,130
  800158:	10820804 	addi	r2,r2,2080
  80015c:	e13ffd17 	ldw	r4,-12(fp)
  800160:	200890fa 	slli	r4,r4,3
  800164:	1105883a 	add	r2,r2,r4
  800168:	10800104 	addi	r2,r2,4
  80016c:	10800017 	ldw	r2,0(r2)
  800170:	e17ffd17 	ldw	r5,-12(fp)
  800174:	1009883a 	mov	r4,r2
  800178:	183ee83a 	callr	r3
#endif
        break;
  80017c:	0001883a 	nop
#ifndef NIOS2_EIC_PRESENT
static ALT_INLINE alt_u32 ALT_ALWAYS_INLINE alt_irq_pending (void)
{
  alt_u32 active;

  NIOS2_READ_IPENDING (active);
  800180:	0005313a 	rdctl	r2,ipending
  800184:	e0bfff15 	stw	r2,-4(fp)

  return active;
  800188:	e0bfff17 	ldw	r2,-4(fp)
  80018c:	00000706 	br	8001ac <alt_irq_handler+0xb0>
      }
      mask <<= 1;
  800190:	e0bffc17 	ldw	r2,-16(fp)
  800194:	1085883a 	add	r2,r2,r2
  800198:	e0bffc15 	stw	r2,-16(fp)
      i++;
  80019c:	e0bffd17 	ldw	r2,-12(fp)
  8001a0:	10800044 	addi	r2,r2,1
  8001a4:	e0bffd15 	stw	r2,-12(fp)

    } while (1);
  8001a8:	003fe006 	br	80012c <__alt_data_end+0xff80012c>

    active = alt_irq_pending ();
  8001ac:	e0bffb15 	stw	r2,-20(fp)
    
  } while (active);
  8001b0:	e0bffb17 	ldw	r2,-20(fp)
  8001b4:	103fda1e 	bne	r2,zero,800120 <__alt_data_end+0xff800120>

  /*
   * Notify the operating system that interrupt processing is complete.
   */ 

  ALT_OS_INT_EXIT();
  8001b8:	0001883a 	nop
}
  8001bc:	0001883a 	nop
  8001c0:	e037883a 	mov	sp,fp
  8001c4:	dfc00117 	ldw	ra,4(sp)
  8001c8:	df000017 	ldw	fp,0(sp)
  8001cc:	dec00204 	addi	sp,sp,8
  8001d0:	f800283a 	ret

008001d4 <alt_instruction_exception_entry>:
 * that handler if it has been registered. Absent a handler, it will
 * break break or hang as discussed below.
 */
int 
alt_instruction_exception_entry (alt_u32 exception_pc)
{
  8001d4:	defffb04 	addi	sp,sp,-20
  8001d8:	dfc00415 	stw	ra,16(sp)
  8001dc:	df000315 	stw	fp,12(sp)
  8001e0:	df000304 	addi	fp,sp,12
  8001e4:	e13fff15 	stw	r4,-4(fp)
 * NIOS2_EXCEPTION_CAUSE_NOT_PRESENT. Your handling routine should
 * check the validity of the cause argument before proceeding.
 */
#ifdef NIOS2_HAS_EXTRA_EXCEPTION_INFO
  /* Get exception cause & "badaddr" */
  NIOS2_READ_EXCEPTION(cause);
  8001e8:	000531fa 	rdctl	r2,exception
  8001ec:	e0bffd15 	stw	r2,-12(fp)
  cause = ( (cause & NIOS2_EXCEPTION_REG_CAUSE_MASK) >>
  8001f0:	e0bffd17 	ldw	r2,-12(fp)
  8001f4:	10801f0c 	andi	r2,r2,124
  8001f8:	1004d0ba 	srli	r2,r2,2
  8001fc:	e0bffd15 	stw	r2,-12(fp)
              NIOS2_EXCEPTION_REG_CAUSE_OFST );

  NIOS2_READ_BADADDR(badaddr);
  800200:	0005333a 	rdctl	r2,badaddr
  800204:	e0bffe15 	stw	r2,-8(fp)
#else
  cause = NIOS2_EXCEPTION_CAUSE_NOT_PRESENT;
  badaddr = 0;
#endif /* NIOS2_HAS_EXTRA_EXCEPTION_INFO */

  if(alt_instruction_exception_handler) {
  800208:	d0a77917 	ldw	r2,-25116(gp)
  80020c:	10000726 	beq	r2,zero,80022c <alt_instruction_exception_entry+0x58>
     * Call handler. Its return value indicates whether the exception-causing
     * instruction should be re-issued. The code that called us,
     * alt_eceptions_entry.S, will look at this value and adjust the ea
     * register as necessary
     */
    return alt_instruction_exception_handler(cause, exception_pc, badaddr);
  800210:	d0a77917 	ldw	r2,-25116(gp)
  800214:	e0fffd17 	ldw	r3,-12(fp)
  800218:	e1bffe17 	ldw	r6,-8(fp)
  80021c:	e17fff17 	ldw	r5,-4(fp)
  800220:	1809883a 	mov	r4,r3
  800224:	103ee83a 	callr	r2
  800228:	00000206 	br	800234 <alt_instruction_exception_entry+0x60>
   *    (a peripheral which negates its interrupt output before its
   *    interrupt handler has been executed will cause spurious interrupts)
   */
  else {
#ifdef NIOS2_HAS_DEBUG_STUB
    NIOS2_BREAK();
  80022c:	003da03a 	break	0
      ;
#endif /* NIOS2_HAS_DEBUG_STUB */
  }

  /* We should not get here. Remove compiler warning. */
  return NIOS2_EXCEPTION_RETURN_REISSUE_INST;
  800230:	0005883a 	mov	r2,zero
}
  800234:	e037883a 	mov	sp,fp
  800238:	dfc00117 	ldw	ra,4(sp)
  80023c:	df000017 	ldw	fp,0(sp)
  800240:	dec00204 	addi	sp,sp,8
  800244:	f800283a 	ret

Disassembly of section .text:

00800248 <_start>:

    /* Assume the data cache size is always a power of two. */
#if NIOS2_DCACHE_SIZE > 0x8000
    movhi r2, %hi(NIOS2_DCACHE_SIZE)
#else
    movui r2, NIOS2_DCACHE_SIZE
  800248:	00820014 	movui	r2,2048
#endif

0:
    initd 0(r2)
  80024c:	10000033 	initd	0(r2)
#ifdef NIOS2_ECC_PRESENT
    addi r2, r2, -4
#else
    addi r2, r2, -NIOS2_DCACHE_LINE_SIZE
  800250:	10bff804 	addi	r2,r2,-32
#endif
    bgt r2, zero, 0b
  800254:	00bffd16 	blt	zero,r2,80024c <__alt_data_end+0xff80024c>

    /*
     * Now that the caches are initialized, set up the stack pointer and global pointer.
     * The values provided by the linker are assumed to be correctly aligned.
     */
    movhi sp, %hi(__alt_stack_pointer)
  800258:	06c04034 	movhi	sp,256
    ori sp, sp, %lo(__alt_stack_pointer)
  80025c:	dec00014 	ori	sp,sp,0
    movhi gp, %hi(_gp)
  800260:	068020b4 	movhi	gp,130
    ori gp, gp, %lo(_gp)
  800264:	d69a8414 	ori	gp,gp,27152
 */
#ifndef ALT_SIM_OPTIMIZE
    /* Log that the BSS is about to be cleared. */
    ALT_LOG_PUTS(alt_log_msg_bss)

    movhi r2, %hi(__bss_start)
  800268:	008020b4 	movhi	r2,130
    ori r2, r2, %lo(__bss_start)
  80026c:	1081ea14 	ori	r2,r2,1960

    movhi r3, %hi(__bss_end)
  800270:	00c020b4 	movhi	r3,130
    ori r3, r3, %lo(__bss_end)
  800274:	18c24814 	ori	r3,r3,2336

    beq r2, r3, 1f
  800278:	10c00326 	beq	r2,r3,800288 <_start+0x40>

0:
    stw zero, (r2)
  80027c:	10000015 	stw	zero,0(r2)
    addi r2, r2, 4
  800280:	10800104 	addi	r2,r2,4
    bltu r2, r3, 0b
  800284:	10fffd36 	bltu	r2,r3,80027c <__alt_data_end+0xff80027c>
     * section aren't defined until alt_load() has been called).
     */
    mov   et, zero
#endif

    call alt_load
  800288:	081853c0 	call	81853c <alt_load>

    /* Log that alt_main is about to be called. */
    ALT_LOG_PUTS(alt_log_msg_alt_main)

    /* Call the C entry point. It should never return. */
    call alt_main
  80028c:	08186d00 	call	8186d0 <alt_main>

00800290 <alt_after_alt_main>:

    /* Wait in infinite loop in case alt_main does return. */
alt_after_alt_main:
    br alt_after_alt_main
  800290:	003fff06 	br	800290 <__alt_data_end+0xff800290>

00800294 <MenuBegin>:
 * 
 * Function to set the Menu "header".
 */

static void MenuBegin( char *title )
{
  800294:	defffd04 	addi	sp,sp,-12
  800298:	dfc00215 	stw	ra,8(sp)
  80029c:	df000115 	stw	fp,4(sp)
  8002a0:	df000104 	addi	fp,sp,4
  8002a4:	e13fff15 	stw	r4,-4(fp)
  printf("\n\n");
  8002a8:	010020b4 	movhi	r4,130
  8002ac:	21301704 	addi	r4,r4,-16292
  8002b0:	08030980 	call	803098 <puts>
  printf("----------------------------------\n");
  8002b4:	010020b4 	movhi	r4,130
  8002b8:	21301804 	addi	r4,r4,-16288
  8002bc:	08030980 	call	803098 <puts>
  printf("Nios II Board Diagnostics\n");
  8002c0:	010020b4 	movhi	r4,130
  8002c4:	21302104 	addi	r4,r4,-16252
  8002c8:	08030980 	call	803098 <puts>
  printf("----------------------------------\n");
  8002cc:	010020b4 	movhi	r4,130
  8002d0:	21301804 	addi	r4,r4,-16288
  8002d4:	08030980 	call	803098 <puts>
  printf(" %s\n",title);
  8002d8:	e17fff17 	ldw	r5,-4(fp)
  8002dc:	010020b4 	movhi	r4,130
  8002e0:	21302804 	addi	r4,r4,-16224
  8002e4:	0802f7c0 	call	802f7c <printf>
}
  8002e8:	0001883a 	nop
  8002ec:	e037883a 	mov	sp,fp
  8002f0:	dfc00117 	ldw	ra,4(sp)
  8002f4:	df000017 	ldw	fp,0(sp)
  8002f8:	dec00204 	addi	sp,sp,8
  8002fc:	f800283a 	ret

00800300 <MenuItem>:
 *    (defined by 'string').
 *
 **********************************************************************/

static void MenuItem( char letter, char *name )
{
  800300:	defffc04 	addi	sp,sp,-16
  800304:	dfc00315 	stw	ra,12(sp)
  800308:	df000215 	stw	fp,8(sp)
  80030c:	df000204 	addi	fp,sp,8
  800310:	2005883a 	mov	r2,r4
  800314:	e17fff15 	stw	r5,-4(fp)
  800318:	e0bffe05 	stb	r2,-8(fp)
  printf("     %c:  %s\n" ,letter, name);
  80031c:	e0bffe07 	ldb	r2,-8(fp)
  800320:	e1bfff17 	ldw	r6,-4(fp)
  800324:	100b883a 	mov	r5,r2
  800328:	010020b4 	movhi	r4,130
  80032c:	21302a04 	addi	r4,r4,-16216
  800330:	0802f7c0 	call	802f7c <printf>
}
  800334:	0001883a 	nop
  800338:	e037883a 	mov	sp,fp
  80033c:	dfc00117 	ldw	ra,4(sp)
  800340:	df000017 	ldw	fp,0(sp)
  800344:	dec00204 	addi	sp,sp,8
  800348:	f800283a 	ret

0080034c <GetInputString>:
*           returns the string, minus any '\r' characters it 
*           encounters.
*
******************************************************************/
void GetInputString( char* entry, int size, FILE * stream )
{
  80034c:	defff904 	addi	sp,sp,-28
  800350:	dfc00615 	stw	ra,24(sp)
  800354:	df000515 	stw	fp,20(sp)
  800358:	df000504 	addi	fp,sp,20
  80035c:	e13ffd15 	stw	r4,-12(fp)
  800360:	e17ffe15 	stw	r5,-8(fp)
  800364:	e1bfff15 	stw	r6,-4(fp)
  int i;
  int ch = 0;
  800368:	e03ffc15 	stw	zero,-16(fp)
  
  for(i = 0; (ch != '\n') && (i < size); )
  80036c:	e03ffb15 	stw	zero,-20(fp)
  800370:	00000e06 	br	8003ac <GetInputString+0x60>
  {
    if( (ch = getc(stream)) != '\r')
  800374:	e13fff17 	ldw	r4,-4(fp)
  800378:	08023740 	call	802374 <getc>
  80037c:	e0bffc15 	stw	r2,-16(fp)
  800380:	e0bffc17 	ldw	r2,-16(fp)
  800384:	10800360 	cmpeqi	r2,r2,13
  800388:	1000081e 	bne	r2,zero,8003ac <GetInputString+0x60>
    {
      entry[i] = ch;
  80038c:	e0bffb17 	ldw	r2,-20(fp)
  800390:	e0fffd17 	ldw	r3,-12(fp)
  800394:	1885883a 	add	r2,r3,r2
  800398:	e0fffc17 	ldw	r3,-16(fp)
  80039c:	10c00005 	stb	r3,0(r2)
      i++;
  8003a0:	e0bffb17 	ldw	r2,-20(fp)
  8003a4:	10800044 	addi	r2,r2,1
  8003a8:	e0bffb15 	stw	r2,-20(fp)
void GetInputString( char* entry, int size, FILE * stream )
{
  int i;
  int ch = 0;
  
  for(i = 0; (ch != '\n') && (i < size); )
  8003ac:	e0bffc17 	ldw	r2,-16(fp)
  8003b0:	108002a0 	cmpeqi	r2,r2,10
  8003b4:	1000031e 	bne	r2,zero,8003c4 <GetInputString+0x78>
  8003b8:	e0fffb17 	ldw	r3,-20(fp)
  8003bc:	e0bffe17 	ldw	r2,-8(fp)
  8003c0:	18bfec16 	blt	r3,r2,800374 <__alt_data_end+0xff800374>
    {
      entry[i] = ch;
      i++;
    }
  }
}
  8003c4:	0001883a 	nop
  8003c8:	e037883a 	mov	sp,fp
  8003cc:	dfc00117 	ldw	ra,4(sp)
  8003d0:	df000017 	ldw	fp,0(sp)
  8003d4:	dec00204 	addi	sp,sp,8
  8003d8:	f800283a 	ret

008003dc <MenuEnd>:
 *    and continues until either a 'q' or a character outside of the 
 *    range, enclosed by 'lowLetter' and 'highLetter', is reached.
 */

static int MenuEnd( char lowLetter, char highLetter )
{
  8003dc:	defffc04 	addi	sp,sp,-16
  8003e0:	dfc00315 	stw	ra,12(sp)
  8003e4:	df000215 	stw	fp,8(sp)
  8003e8:	df000204 	addi	fp,sp,8
  8003ec:	2007883a 	mov	r3,r4
  8003f0:	2805883a 	mov	r2,r5
  8003f4:	e0fffe05 	stb	r3,-8(fp)
  8003f8:	e0bfff05 	stb	r2,-4(fp)
  static char entry[4];
  static char ch;

  printf("     q:  Exit\n");
  8003fc:	010020b4 	movhi	r4,130
  800400:	21302e04 	addi	r4,r4,-16200
  800404:	08030980 	call	803098 <puts>
  printf("----------------------------------\n");
  800408:	010020b4 	movhi	r4,130
  80040c:	21301804 	addi	r4,r4,-16288
  800410:	08030980 	call	803098 <puts>
  printf("\nSelect Choice (%c-%c): [Followed by <enter>]",lowLetter,highLetter);
  800414:	e0bffe07 	ldb	r2,-8(fp)
  800418:	e0ffff07 	ldb	r3,-4(fp)
  80041c:	180d883a 	mov	r6,r3
  800420:	100b883a 	mov	r5,r2
  800424:	010020b4 	movhi	r4,130
  800428:	21303204 	addi	r4,r4,-16184
  80042c:	0802f7c0 	call	802f7c <printf>
  
  GetInputString( entry, sizeof(entry), stdin );
  800430:	d0a00117 	ldw	r2,-32764(gp)
  800434:	10800117 	ldw	r2,4(r2)
  800438:	100d883a 	mov	r6,r2
  80043c:	01400104 	movi	r5,4
  800440:	d1276604 	addi	r4,gp,-25192
  800444:	080034c0 	call	80034c <GetInputString>
  if(sscanf(entry, "%c\n", &ch))
  800448:	d1a76704 	addi	r6,gp,-25188
  80044c:	014020b4 	movhi	r5,130
  800450:	29703e04 	addi	r5,r5,-16136
  800454:	d1276604 	addi	r4,gp,-25192
  800458:	08033780 	call	803378 <sscanf>
  80045c:	10001726 	beq	r2,zero,8004bc <MenuEnd+0xe0>
  {
    if( ch >= 'A' && ch <= 'Z' )
  800460:	d0a76703 	ldbu	r2,-25188(gp)
  800464:	10803fcc 	andi	r2,r2,255
  800468:	1080201c 	xori	r2,r2,128
  80046c:	10bfe004 	addi	r2,r2,-128
  800470:	10801050 	cmplti	r2,r2,65
  800474:	1000091e 	bne	r2,zero,80049c <MenuEnd+0xc0>
  800478:	d0a76703 	ldbu	r2,-25188(gp)
  80047c:	10803fcc 	andi	r2,r2,255
  800480:	1080201c 	xori	r2,r2,128
  800484:	10bfe004 	addi	r2,r2,-128
  800488:	108016c8 	cmpgei	r2,r2,91
  80048c:	1000031e 	bne	r2,zero,80049c <MenuEnd+0xc0>
      ch += 'a' - 'A';
  800490:	d0a76703 	ldbu	r2,-25188(gp)
  800494:	10800804 	addi	r2,r2,32
  800498:	d0a76705 	stb	r2,-25188(gp)
    if( ch == 27 )
  80049c:	d0a76703 	ldbu	r2,-25188(gp)
  8004a0:	10803fcc 	andi	r2,r2,255
  8004a4:	1080201c 	xori	r2,r2,128
  8004a8:	10bfe004 	addi	r2,r2,-128
  8004ac:	108006d8 	cmpnei	r2,r2,27
  8004b0:	1000021e 	bne	r2,zero,8004bc <MenuEnd+0xe0>
      ch = 'q';        
  8004b4:	00801c44 	movi	r2,113
  8004b8:	d0a76705 	stb	r2,-25188(gp)
  }
  return ch;
  8004bc:	d0a76703 	ldbu	r2,-25188(gp)
  8004c0:	10803fcc 	andi	r2,r2,255
  8004c4:	1080201c 	xori	r2,r2,128
  8004c8:	10bfe004 	addi	r2,r2,-128
}
  8004cc:	e037883a 	mov	sp,fp
  8004d0:	dfc00117 	ldw	ra,4(sp)
  8004d4:	df000017 	ldw	fp,0(sp)
  8004d8:	dec00204 	addi	sp,sp,8
  8004dc:	f800283a 	ret

008004e0 <DoSevenSegMenu>:
 * Generates the Seven Segment Display menu.
 * 
 ******************************************************************************/

static void DoSevenSegMenu( void )
{
  8004e0:	defffe04 	addi	sp,sp,-8
  8004e4:	dfc00115 	stw	ra,4(sp)
  8004e8:	df000015 	stw	fp,0(sp)
  8004ec:	d839883a 	mov	fp,sp
  static char ch;

  while(1)
  {
    MenuBegin("Seven Segment Menu");
  8004f0:	010020b4 	movhi	r4,130
  8004f4:	21303f04 	addi	r4,r4,-16132
  8004f8:	08002940 	call	800294 <MenuBegin>
    MenuItem('a', "Count From 0 to FF.");
  8004fc:	014020b4 	movhi	r5,130
  800500:	29704404 	addi	r5,r5,-16112
  800504:	01001844 	movi	r4,97
  800508:	08003000 	call	800300 <MenuItem>
    MenuItem('b', "Control Individual Segments.");
  80050c:	014020b4 	movhi	r5,130
  800510:	29704904 	addi	r5,r5,-16092
  800514:	01001884 	movi	r4,98
  800518:	08003000 	call	800300 <MenuItem>
    ch = MenuEnd('a', 'b');
  80051c:	01401884 	movi	r5,98
  800520:	01001844 	movi	r4,97
  800524:	08003dc0 	call	8003dc <MenuEnd>
  800528:	d0a76745 	stb	r2,-25187(gp)
  
    switch(ch)
  80052c:	d0a76743 	ldbu	r2,-25187(gp)
  800530:	10803fcc 	andi	r2,r2,255
  800534:	1080201c 	xori	r2,r2,128
  800538:	10bfe004 	addi	r2,r2,-128
  80053c:	10c01860 	cmpeqi	r3,r2,97
  800540:	1800031e 	bne	r3,zero,800550 <DoSevenSegMenu+0x70>
  800544:	108018a0 	cmpeqi	r2,r2,98
  800548:	1000031e 	bne	r2,zero,800558 <DoSevenSegMenu+0x78>
  80054c:	00000406 	br	800560 <DoSevenSegMenu+0x80>
    {
      MenuCase('a', SevenSegCount);
  800550:	0800bd40 	call	800bd4 <SevenSegCount>
  800554:	00000206 	br	800560 <DoSevenSegMenu+0x80>
      MenuCase('b', SevenSegControl);
  800558:	0800c340 	call	800c34 <SevenSegControl>
  80055c:	0001883a 	nop
    }
    
    if ( ch == 'q' )
  800560:	d0a76743 	ldbu	r2,-25187(gp)
  800564:	10803fcc 	andi	r2,r2,255
  800568:	1080201c 	xori	r2,r2,128
  80056c:	10bfe004 	addi	r2,r2,-128
  800570:	10801c58 	cmpnei	r2,r2,113
  800574:	10000126 	beq	r2,zero,80057c <DoSevenSegMenu+0x9c>
    {
      break;
    }
  }
  800578:	003fdd06 	br	8004f0 <__alt_data_end+0xff8004f0>
      MenuCase('b', SevenSegControl);
    }
    
    if ( ch == 'q' )
    {
      break;
  80057c:	0001883a 	nop
    }
  }
}
  800580:	0001883a 	nop
  800584:	e037883a 	mov	sp,fp
  800588:	dfc00117 	ldw	ra,4(sp)
  80058c:	df000017 	ldw	fp,0(sp)
  800590:	dec00204 	addi	sp,sp,8
  800594:	f800283a 	ret

00800598 <TopMenu>:
 * Generates the top level menu for this diagnostics program.
 * 
 ******************************************************************************/

static char TopMenu( void )
{
  800598:	defffe04 	addi	sp,sp,-8
  80059c:	dfc00115 	stw	ra,4(sp)
  8005a0:	df000015 	stw	fp,0(sp)
  8005a4:	d839883a 	mov	fp,sp
  
  /* Output the top-level menu to STDOUT */

  while (1)
  {
    MenuBegin("Main Menu");
  8005a8:	010020b4 	movhi	r4,130
  8005ac:	21305104 	addi	r4,r4,-16060
  8005b0:	08002940 	call	800294 <MenuBegin>
#ifdef LED_PIO_NAME
    MenuItem( 'a', "Test LEDs (D1-D4)" );
  8005b4:	014020b4 	movhi	r5,130
  8005b8:	29705404 	addi	r5,r5,-16048
  8005bc:	01001844 	movi	r4,97
  8005c0:	08003000 	call	800300 <MenuItem>
#endif
#ifdef LCD_DISPLAY_NAME
    MenuItem( 'b', "LCD Display Test");
  8005c4:	014020b4 	movhi	r5,130
  8005c8:	29705904 	addi	r5,r5,-16028
  8005cc:	01001884 	movi	r4,98
  8005d0:	08003000 	call	800300 <MenuItem>
#endif
#ifdef BUTTON_PIO_NAME
    MenuItem( 'c', "Push Button Test");
  8005d4:	014020b4 	movhi	r5,130
  8005d8:	29705e04 	addi	r5,r5,-16008
  8005dc:	010018c4 	movi	r4,99
  8005e0:	08003000 	call	800300 <MenuItem>
#endif
#ifdef SEVEN_SEG_PIO_NAME
    MenuItem( 'd', "Seven Segment Menu" );
  8005e4:	014020b4 	movhi	r5,130
  8005e8:	29703f04 	addi	r5,r5,-16132
  8005ec:	01001904 	movi	r4,100
  8005f0:	08003000 	call	800300 <MenuItem>
#endif
#ifdef JTAG_UART_NAME
    MenuItem( 'e', "JTAG UART Menu" );
#endif  
    ch = MenuEnd('a', 'e');
  8005f4:	01401944 	movi	r5,101
  8005f8:	01001844 	movi	r4,97
  8005fc:	08003dc0 	call	8003dc <MenuEnd>
  800600:	d0a76785 	stb	r2,-25186(gp)

  
    switch(ch)
  800604:	d0a76783 	ldbu	r2,-25186(gp)
  800608:	10803fcc 	andi	r2,r2,255
  80060c:	1080201c 	xori	r2,r2,128
  800610:	10bfe004 	addi	r2,r2,-128
  800614:	10bfe7c4 	addi	r2,r2,-97
  800618:	10c00468 	cmpgeui	r3,r2,17
  80061c:	18001f1e 	bne	r3,zero,80069c <TopMenu+0x104>
  800620:	100690ba 	slli	r3,r2,2
  800624:	00802034 	movhi	r2,128
  800628:	10818e04 	addi	r2,r2,1592
  80062c:	1885883a 	add	r2,r3,r2
  800630:	10800017 	ldw	r2,0(r2)
  800634:	1000683a 	jmp	r2
  800638:	0080067c 	xorhi	r2,zero,25
  80063c:	00800684 	movi	r2,26
  800640:	0080068c 	andi	r2,zero,26
  800644:	00800694 	movui	r2,26
  800648:	0080069c 	xori	r2,zero,26
  80064c:	0080069c 	xori	r2,zero,26
  800650:	0080069c 	xori	r2,zero,26
  800654:	0080069c 	xori	r2,zero,26
  800658:	0080069c 	xori	r2,zero,26
  80065c:	0080069c 	xori	r2,zero,26
  800660:	0080069c 	xori	r2,zero,26
  800664:	0080069c 	xori	r2,zero,26
  800668:	0080069c 	xori	r2,zero,26
  80066c:	0080069c 	xori	r2,zero,26
  800670:	0080069c 	xori	r2,zero,26
  800674:	0080069c 	xori	r2,zero,26
  800678:	008006c0 	call	8006c <__alt_mem_sdram_0-0x77ff94>
    {
#ifdef LED_PIO_NAME
      MenuCase('a',TestLEDs);
  80067c:	08006fc0 	call	8006fc <TestLEDs>
  800680:	00001006 	br	8006c4 <TopMenu+0x12c>
#endif
#ifdef LCD_DISPLAY_NAME
      MenuCase('b',TestLCD);
  800684:	08007c00 	call	8007c0 <TestLCD>
  800688:	00000e06 	br	8006c4 <TopMenu+0x12c>
#endif
#ifdef BUTTON_PIO_NAME
      MenuCase('c',TestButtons);
  80068c:	08009cc0 	call	8009cc <TestButtons>
  800690:	00000c06 	br	8006c4 <TopMenu+0x12c>
#endif
#ifdef SEVEN_SEG_PIO_NAME
      MenuCase('d',DoSevenSegMenu);
  800694:	08004e00 	call	8004e0 <DoSevenSegMenu>
  800698:	00000a06 	br	8006c4 <TopMenu+0x12c>
#endif
#ifdef JTAG_UART_NAME
      MenuCase('e',DoJTAGUARTMenu);
#endif
      case 'q':	break;
      default:	printf("\n -ERROR: %c is an invalid entry.  Please try again\n", ch); break;
  80069c:	d0a76783 	ldbu	r2,-25186(gp)
  8006a0:	10803fcc 	andi	r2,r2,255
  8006a4:	1080201c 	xori	r2,r2,128
  8006a8:	10bfe004 	addi	r2,r2,-128
  8006ac:	100b883a 	mov	r5,r2
  8006b0:	010020b4 	movhi	r4,130
  8006b4:	21306304 	addi	r4,r4,-15988
  8006b8:	0802f7c0 	call	802f7c <printf>
  8006bc:	00000106 	br	8006c4 <TopMenu+0x12c>
      MenuCase('d',DoSevenSegMenu);
#endif
#ifdef JTAG_UART_NAME
      MenuCase('e',DoJTAGUARTMenu);
#endif
      case 'q':	break;
  8006c0:	0001883a 	nop
      default:	printf("\n -ERROR: %c is an invalid entry.  Please try again\n", ch); break;
    }
    
    if (ch == 'q' )
  8006c4:	d0a76783 	ldbu	r2,-25186(gp)
  8006c8:	10803fcc 	andi	r2,r2,255
  8006cc:	1080201c 	xori	r2,r2,128
  8006d0:	10bfe004 	addi	r2,r2,-128
  8006d4:	10801c58 	cmpnei	r2,r2,113
  8006d8:	10000126 	beq	r2,zero,8006e0 <TopMenu+0x148>
      break;
  }
  8006dc:	003fb206 	br	8005a8 <__alt_data_end+0xff8005a8>
      case 'q':	break;
      default:	printf("\n -ERROR: %c is an invalid entry.  Please try again\n", ch); break;
    }
    
    if (ch == 'q' )
      break;
  8006e0:	0001883a 	nop
  }
  return( ch );
  8006e4:	d0a76783 	ldbu	r2,-25186(gp)
}
  8006e8:	e037883a 	mov	sp,fp
  8006ec:	dfc00117 	ldw	ra,4(sp)
  8006f0:	df000017 	ldw	fp,0(sp)
  8006f4:	dec00204 	addi	sp,sp,8
  8006f8:	f800283a 	ret

008006fc <TestLEDs>:
 * This function tests LED functionality.
 * It exits when the user types a 'q'.
 */

static void TestLEDs(void)
{
  8006fc:	defffd04 	addi	sp,sp,-12
  800700:	dfc00215 	stw	ra,8(sp)
  800704:	df000115 	stw	fp,4(sp)
  800708:	df000104 	addi	fp,sp,4
  volatile alt_u8 led;
  static char ch;
  static char entry[4];
  
  /* Turn the LEDs on. */
  led = 0xff;
  80070c:	00bfffc4 	movi	r2,-1
  800710:	e0bfff05 	stb	r2,-4(fp)
  IOWR_ALTERA_AVALON_PIO_DATA(LED_PIO_BASE, led);
  800714:	e0bfff03 	ldbu	r2,-4(fp)
  800718:	10c03fcc 	andi	r3,r2,255
  80071c:	00804034 	movhi	r2,256
  800720:	10844c04 	addi	r2,r2,4400
  800724:	10c00035 	stwio	r3,0(r2)
  printf( "\nLEDs D1-D4 should now be on.\n" );
  800728:	010020b4 	movhi	r4,130
  80072c:	21307104 	addi	r4,r4,-15932
  800730:	08030980 	call	803098 <puts>
  printf( "\tPlease press 'q' [Followed by <enter>] to exit this test.\n" );
  800734:	010020b4 	movhi	r4,130
  800738:	21307904 	addi	r4,r4,-15900
  80073c:	08030980 	call	803098 <puts>
  
  /* Get the input string for exiting this test. */
  do {
    GetInputString( entry, sizeof(entry), stdin);
  800740:	d0a00117 	ldw	r2,-32764(gp)
  800744:	10800117 	ldw	r2,4(r2)
  800748:	100d883a 	mov	r6,r2
  80074c:	01400104 	movi	r5,4
  800750:	d12767c4 	addi	r4,gp,-25185
  800754:	080034c0 	call	80034c <GetInputString>
    sscanf( entry, "%c\n", &ch );
  800758:	d1a768c4 	addi	r6,gp,-25181
  80075c:	014020b4 	movhi	r5,130
  800760:	29703e04 	addi	r5,r5,-16136
  800764:	d12767c4 	addi	r4,gp,-25185
  800768:	08033780 	call	803378 <sscanf>
  } while ( ch != 'q' );
  80076c:	d0a768c3 	ldbu	r2,-25181(gp)
  800770:	10803fcc 	andi	r2,r2,255
  800774:	1080201c 	xori	r2,r2,128
  800778:	10bfe004 	addi	r2,r2,-128
  80077c:	10801c58 	cmpnei	r2,r2,113
  800780:	103fef1e 	bne	r2,zero,800740 <__alt_data_end+0xff800740>
  
  /* Turn the LEDs off and exit. */
  led = 0x0;
  800784:	e03fff05 	stb	zero,-4(fp)
  IOWR_ALTERA_AVALON_PIO_DATA(LED_PIO_BASE, led);
  800788:	e0bfff03 	ldbu	r2,-4(fp)
  80078c:	10c03fcc 	andi	r3,r2,255
  800790:	00804034 	movhi	r2,256
  800794:	10844c04 	addi	r2,r2,4400
  800798:	10c00035 	stwio	r3,0(r2)
  printf(".....Exiting LED Test.\n");
  80079c:	010020b4 	movhi	r4,130
  8007a0:	21308804 	addi	r4,r4,-15840
  8007a4:	08030980 	call	803098 <puts>
}
  8007a8:	0001883a 	nop
  8007ac:	e037883a 	mov	sp,fp
  8007b0:	dfc00117 	ldw	ra,4(sp)
  8007b4:	df000017 	ldw	fp,0(sp)
  8007b8:	dec00204 	addi	sp,sp,8
  8007bc:	f800283a 	ret

008007c0 <TestLCD>:
 * Tests the LCD by printing some simple output to each line.
 * 
 ******************************************************************************/

static void TestLCD( void )
{
  8007c0:	defffd04 	addi	sp,sp,-12
  8007c4:	dfc00215 	stw	ra,8(sp)
  8007c8:	df000115 	stw	fp,4(sp)
  8007cc:	df000104 	addi	fp,sp,4
  FILE *lcd;
  static char ch;
  static char entry[4];
  
  lcd = fopen("/dev/lcd_display", "w");
  8007d0:	014020b4 	movhi	r5,130
  8007d4:	29708e04 	addi	r5,r5,-15816
  8007d8:	010020b4 	movhi	r4,130
  8007dc:	21308f04 	addi	r4,r4,-15812
  8007e0:	08017080 	call	801708 <fopen>
  8007e4:	e0bfff15 	stw	r2,-4(fp)
  
  /* Write some simple text to the LCD. */
  if (lcd != NULL )
  8007e8:	e0bfff17 	ldw	r2,-4(fp)
  8007ec:	10000c26 	beq	r2,zero,800820 <TestLCD+0x60>
  {
    fprintf(lcd, "\nThis is the LCD Display.\n");
  8007f0:	e1ffff17 	ldw	r7,-4(fp)
  8007f4:	01800684 	movi	r6,26
  8007f8:	01400044 	movi	r5,1
  8007fc:	010020b4 	movhi	r4,130
  800800:	21309404 	addi	r4,r4,-15792
  800804:	08022d00 	call	8022d0 <fwrite>
    fprintf(lcd, "If you can see this, your LCD is functional.\n");
  800808:	e1ffff17 	ldw	r7,-4(fp)
  80080c:	01800b44 	movi	r6,45
  800810:	01400044 	movi	r5,1
  800814:	010020b4 	movhi	r4,130
  800818:	21309b04 	addi	r4,r4,-15764
  80081c:	08022d00 	call	8022d0 <fwrite>
  }
  printf("\nIf you can see messages scrolling on the LCD Display, then it is functional!\n");
  800820:	010020b4 	movhi	r4,130
  800824:	2130a704 	addi	r4,r4,-15716
  800828:	08030980 	call	803098 <puts>
  printf( "\tPlease press 'q' [Followed by <enter>] to exit this test.\n" );
  80082c:	010020b4 	movhi	r4,130
  800830:	21307904 	addi	r4,r4,-15900
  800834:	08030980 	call	803098 <puts>
  
  /* Get the input string for exiting this test. */
  do {
    GetInputString( entry, sizeof(entry), stdin);
  800838:	d0a00117 	ldw	r2,-32764(gp)
  80083c:	10800117 	ldw	r2,4(r2)
  800840:	100d883a 	mov	r6,r2
  800844:	01400104 	movi	r5,4
  800848:	d1276904 	addi	r4,gp,-25180
  80084c:	080034c0 	call	80034c <GetInputString>
    sscanf( entry, "%c\n", &ch );
  800850:	d1a76a04 	addi	r6,gp,-25176
  800854:	014020b4 	movhi	r5,130
  800858:	29703e04 	addi	r5,r5,-16136
  80085c:	d1276904 	addi	r4,gp,-25180
  800860:	08033780 	call	803378 <sscanf>
  } while ( ch != 'q' );
  800864:	d0a76a03 	ldbu	r2,-25176(gp)
  800868:	10803fcc 	andi	r2,r2,255
  80086c:	1080201c 	xori	r2,r2,128
  800870:	10bfe004 	addi	r2,r2,-128
  800874:	10801c58 	cmpnei	r2,r2,113
  800878:	103fef1e 	bne	r2,zero,800838 <__alt_data_end+0xff800838>

  /* Send the command sequence to clear the LCD. */
  if (lcd != NULL )
  80087c:	e0bfff17 	ldw	r2,-4(fp)
  800880:	10000726 	beq	r2,zero,8008a0 <TestLCD+0xe0>
  {
    fprintf(lcd, "%c%s", ESC, CLEAR_LCD_STRING);
  800884:	01c020b4 	movhi	r7,130
  800888:	39f0bb04 	addi	r7,r7,-15636
  80088c:	018006c4 	movi	r6,27
  800890:	014020b4 	movhi	r5,130
  800894:	2970bc04 	addi	r5,r5,-15632
  800898:	e13fff17 	ldw	r4,-4(fp)
  80089c:	08017480 	call	801748 <fprintf>
  }
  fclose( lcd );
  8008a0:	e13fff17 	ldw	r4,-4(fp)
  8008a4:	0800fb80 	call	800fb8 <fclose>

  return;
  8008a8:	0001883a 	nop
}
  8008ac:	e037883a 	mov	sp,fp
  8008b0:	dfc00117 	ldw	ra,4(sp)
  8008b4:	df000017 	ldw	fp,0(sp)
  8008b8:	dec00204 	addi	sp,sp,8
  8008bc:	f800283a 	ret

008008c0 <handle_button_interrupts>:
#ifdef ALT_ENHANCED_INTERRUPT_API_PRESENT
static void handle_button_interrupts(void* context)
#else
static void handle_button_interrupts(void* context, alt_u32 id)
#endif
{
  8008c0:	defffc04 	addi	sp,sp,-16
  8008c4:	df000315 	stw	fp,12(sp)
  8008c8:	df000304 	addi	fp,sp,12
  8008cc:	e13ffe15 	stw	r4,-8(fp)
  8008d0:	e17fff15 	stw	r5,-4(fp)
  /* Cast context to edge_capture's type.
   * It is important to keep this volatile,
   * to avoid compiler optimization issues.
   */
  volatile int* edge_capture_ptr = (volatile int*) context;
  8008d4:	e0bffe17 	ldw	r2,-8(fp)
  8008d8:	e0bffd15 	stw	r2,-12(fp)
  /* Store the value in the Button's edge capture register in *context. */
  *edge_capture_ptr = IORD_ALTERA_AVALON_PIO_EDGE_CAP(BUTTON_PIO_BASE);
  8008dc:	00804034 	movhi	r2,256
  8008e0:	10844b04 	addi	r2,r2,4396
  8008e4:	10c00037 	ldwio	r3,0(r2)
  8008e8:	e0bffd17 	ldw	r2,-12(fp)
  8008ec:	10c00015 	stw	r3,0(r2)
  /* Reset the Button's edge capture register. */
  IOWR_ALTERA_AVALON_PIO_EDGE_CAP(BUTTON_PIO_BASE, 0);
  8008f0:	0007883a 	mov	r3,zero
  8008f4:	00804034 	movhi	r2,256
  8008f8:	10844b04 	addi	r2,r2,4396
  8008fc:	10c00035 	stwio	r3,0(r2)
  /* 
   * Read the PIO to delay ISR exit. This is done to prevent a spurious
   * interrupt in systems with high processor -> pio latency and fast
   * interrupts.
   */
  IORD_ALTERA_AVALON_PIO_EDGE_CAP(BUTTON_PIO_BASE);
  800900:	00804034 	movhi	r2,256
  800904:	10844b04 	addi	r2,r2,4396
  800908:	10800037 	ldwio	r2,0(r2)
}
  80090c:	0001883a 	nop
  800910:	e037883a 	mov	sp,fp
  800914:	df000017 	ldw	fp,0(sp)
  800918:	dec00104 	addi	sp,sp,4
  80091c:	f800283a 	ret

00800920 <init_button_pio>:

/* Initialize the button_pio. */

static void init_button_pio()
{
  800920:	defffd04 	addi	sp,sp,-12
  800924:	dfc00215 	stw	ra,8(sp)
  800928:	df000115 	stw	fp,4(sp)
  80092c:	df000104 	addi	fp,sp,4
  /* Recast the edge_capture pointer to match the alt_irq_register() function
  * prototype. */
  void* edge_capture_ptr = (void*) &edge_capture;
  800930:	d0a76b04 	addi	r2,gp,-25172
  800934:	e0bfff15 	stw	r2,-4(fp)
  /* Enable all 4 button interrupts. */
  IOWR_ALTERA_AVALON_PIO_IRQ_MASK(BUTTON_PIO_BASE, 0xf);
  800938:	00c003c4 	movi	r3,15
  80093c:	00804034 	movhi	r2,256
  800940:	10844a04 	addi	r2,r2,4392
  800944:	10c00035 	stwio	r3,0(r2)
  /* Reset the edge capture register. */
  IOWR_ALTERA_AVALON_PIO_EDGE_CAP(BUTTON_PIO_BASE, 0x0);
  800948:	0007883a 	mov	r3,zero
  80094c:	00804034 	movhi	r2,256
  800950:	10844b04 	addi	r2,r2,4396
  800954:	10c00035 	stwio	r3,0(r2)
   */
#ifdef ALT_ENHANCED_INTERRUPT_API_PRESENT
  alt_ic_isr_register(BUTTON_PIO_IRQ_INTERRUPT_CONTROLLER_ID, BUTTON_PIO_IRQ, 
    handle_button_interrupts, edge_capture_ptr, 0x0);
#else
  alt_irq_register( BUTTON_PIO_IRQ, edge_capture_ptr, 
  800958:	01802034 	movhi	r6,128
  80095c:	31823004 	addi	r6,r6,2240
  800960:	e17fff17 	ldw	r5,-4(fp)
  800964:	01000044 	movi	r4,1
  800968:	08182740 	call	818274 <alt_irq_register>
    handle_button_interrupts);
#endif
}
  80096c:	0001883a 	nop
  800970:	e037883a 	mov	sp,fp
  800974:	dfc00117 	ldw	ra,4(sp)
  800978:	df000017 	ldw	fp,0(sp)
  80097c:	dec00204 	addi	sp,sp,8
  800980:	f800283a 	ret

00800984 <disable_button_pio>:

/* Tear down the button_pio. */

static void disable_button_pio()
{
  800984:	defffe04 	addi	sp,sp,-8
  800988:	dfc00115 	stw	ra,4(sp)
  80098c:	df000015 	stw	fp,0(sp)
  800990:	d839883a 	mov	fp,sp
  /* Disable interrupts from the button_pio PIO component. */
  IOWR_ALTERA_AVALON_PIO_IRQ_MASK(BUTTON_PIO_BASE, 0x0);
  800994:	0007883a 	mov	r3,zero
  800998:	00804034 	movhi	r2,256
  80099c:	10844a04 	addi	r2,r2,4392
  8009a0:	10c00035 	stwio	r3,0(r2)
  /* Un-register the IRQ handler by passing a null handler. */
#ifdef ALT_ENHANCED_INTERRUPT_API_PRESENT
  alt_ic_isr_register(BUTTON_PIO_IRQ_INTERRUPT_CONTROLLER_ID, BUTTON_PIO_IRQ, 
    NULL, NULL, NULL);
#else
  alt_irq_register( BUTTON_PIO_IRQ, NULL, NULL );
  8009a4:	000d883a 	mov	r6,zero
  8009a8:	000b883a 	mov	r5,zero
  8009ac:	01000044 	movi	r4,1
  8009b0:	08182740 	call	818274 <alt_irq_register>
#endif
}
  8009b4:	0001883a 	nop
  8009b8:	e037883a 	mov	sp,fp
  8009bc:	dfc00117 	ldw	ra,4(sp)
  8009c0:	df000017 	ldw	fp,0(sp)
  8009c4:	dec00204 	addi	sp,sp,8
  8009c8:	f800283a 	ret

008009cc <TestButtons>:
 * 
 ******************************************************************************/


static void TestButtons( void )
{
  8009cc:	defffb04 	addi	sp,sp,-20
  8009d0:	dfc00415 	stw	ra,16(sp)
  8009d4:	df000315 	stw	fp,12(sp)
  8009d8:	df000304 	addi	fp,sp,12
  /* Variable which holds the last value of edge_capture to avoid 
   * "double counting" button/switch presses
   */
  int last_tested;
  /* Initialize the Buttons/Switches (SW0-SW3) */
  init_button_pio();
  8009dc:	08009200 	call	800920 <init_button_pio>
  /* Initialize the variables which keep track of which buttons have been tested. */
  buttons_tested = 0x0;
  8009e0:	e03ffd05 	stb	zero,-12(fp)
  all_tested = 0xf;
  8009e4:	008003c4 	movi	r2,15
  8009e8:	e0bfff05 	stb	r2,-4(fp)

  /* Initialize edge_capture to avoid any "false" triggers from
   * a previous run.
   */
   
  edge_capture = 0;
  8009ec:	d0276b15 	stw	zero,-25172(gp)
  
  /* Set last_tested to a value that edge_capture can never equal
   * to avoid accidental equalities in the while() loop below.
   */
    
  last_tested = 0xffff;
  8009f0:	00bfffd4 	movui	r2,65535
  8009f4:	e0bffe15 	stw	r2,-8(fp)

  /* Print a quick message stating what is happening */
  
  printf("\nA loop will be run until all Push buttons (PB0-PB3) have been pressed.\n\n");
  8009f8:	010020b4 	movhi	r4,130
  8009fc:	2130be04 	addi	r4,r4,-15624
  800a00:	08030980 	call	803098 <puts>
  printf("\n\tNOTE:  Once a button press has been detected, for a particular button,\n\tany further presses will be ignored!\n\n");
  800a04:	010020b4 	movhi	r4,130
  800a08:	2130d104 	addi	r4,r4,-15548
  800a0c:	08030980 	call	803098 <puts>
  
  /* Loop until all buttons have been pressed.
   * This happens when buttons_tested == all_tested.
   */
  
  while (  buttons_tested != all_tested )
  800a10:	00003f06 	br	800b10 <TestButtons+0x144>
  { 
    if (last_tested == edge_capture)
  800a14:	d0a76b17 	ldw	r2,-25172(gp)
  800a18:	e0fffe17 	ldw	r3,-8(fp)
  800a1c:	1880011e 	bne	r3,r2,800a24 <TestButtons+0x58>
    {
      continue;
  800a20:	00003b06 	br	800b10 <TestButtons+0x144>
    }
    else
    {
      last_tested = edge_capture;
  800a24:	d0a76b17 	ldw	r2,-25172(gp)
  800a28:	e0bffe15 	stw	r2,-8(fp)
      switch (edge_capture)
  800a2c:	d0a76b17 	ldw	r2,-25172(gp)
  800a30:	10c000a0 	cmpeqi	r3,r2,2
  800a34:	1800151e 	bne	r3,zero,800a8c <TestButtons+0xc0>
  800a38:	10c000c8 	cmpgei	r3,r2,3
  800a3c:	1800031e 	bne	r3,zero,800a4c <TestButtons+0x80>
  800a40:	10800060 	cmpeqi	r2,r2,1
  800a44:	1000061e 	bne	r2,zero,800a60 <TestButtons+0x94>
  800a48:	00003106 	br	800b10 <TestButtons+0x144>
  800a4c:	10c00120 	cmpeqi	r3,r2,4
  800a50:	1800191e 	bne	r3,zero,800ab8 <TestButtons+0xec>
  800a54:	10800220 	cmpeqi	r2,r2,8
  800a58:	1000221e 	bne	r2,zero,800ae4 <TestButtons+0x118>
  800a5c:	00002c06 	br	800b10 <TestButtons+0x144>
      {
        case 0x1:
          if (buttons_tested & 0x1)
  800a60:	e0bffd03 	ldbu	r2,-12(fp)
  800a64:	1080004c 	andi	r2,r2,1
  800a68:	10000126 	beq	r2,zero,800a70 <TestButtons+0xa4>
          {
            continue;
  800a6c:	00002806 	br	800b10 <TestButtons+0x144>
          }
          else
          {
            printf("\nButton 1 (PB0) Pressed.\n");
  800a70:	010020b4 	movhi	r4,130
  800a74:	2130ed04 	addi	r4,r4,-15436
  800a78:	08030980 	call	803098 <puts>
            buttons_tested = buttons_tested | 0x1;
  800a7c:	e0bffd03 	ldbu	r2,-12(fp)
  800a80:	10800054 	ori	r2,r2,1
  800a84:	e0bffd05 	stb	r2,-12(fp)
          } 
          break;
  800a88:	00002106 	br	800b10 <TestButtons+0x144>
        case 0x2:
          if (buttons_tested & 0x2)
  800a8c:	e0bffd03 	ldbu	r2,-12(fp)
  800a90:	1080008c 	andi	r2,r2,2
  800a94:	10000126 	beq	r2,zero,800a9c <TestButtons+0xd0>
          {
            continue;
  800a98:	00001d06 	br	800b10 <TestButtons+0x144>
          } 
          else
          {
            printf("\nButton 2 (PB1) Pressed.\n");
  800a9c:	010020b4 	movhi	r4,130
  800aa0:	2130f404 	addi	r4,r4,-15408
  800aa4:	08030980 	call	803098 <puts>
            buttons_tested = buttons_tested | 0x2;
  800aa8:	e0bffd03 	ldbu	r2,-12(fp)
  800aac:	10800094 	ori	r2,r2,2
  800ab0:	e0bffd05 	stb	r2,-12(fp)
          }
          break;
  800ab4:	00001606 	br	800b10 <TestButtons+0x144>
        case 0x4:
          if (buttons_tested & 0x4)
  800ab8:	e0bffd03 	ldbu	r2,-12(fp)
  800abc:	1080010c 	andi	r2,r2,4
  800ac0:	10000126 	beq	r2,zero,800ac8 <TestButtons+0xfc>
          {
            continue;
  800ac4:	00001206 	br	800b10 <TestButtons+0x144>
          }
          else
          {
            printf("\nButton 3 (PB2) Pressed.\n");
  800ac8:	010020b4 	movhi	r4,130
  800acc:	2130fb04 	addi	r4,r4,-15380
  800ad0:	08030980 	call	803098 <puts>
            buttons_tested = buttons_tested | 0x4;
  800ad4:	e0bffd03 	ldbu	r2,-12(fp)
  800ad8:	10800114 	ori	r2,r2,4
  800adc:	e0bffd05 	stb	r2,-12(fp)
          }
          break;
  800ae0:	00000b06 	br	800b10 <TestButtons+0x144>
        case 0x8:
          if (buttons_tested & 0x8)
  800ae4:	e0bffd03 	ldbu	r2,-12(fp)
  800ae8:	1080020c 	andi	r2,r2,8
  800aec:	10000126 	beq	r2,zero,800af4 <TestButtons+0x128>
          {
            continue;
  800af0:	00000706 	br	800b10 <TestButtons+0x144>
          }
          else
          {
            printf("\nButton 4 (PB3) Pressed.\n");
  800af4:	010020b4 	movhi	r4,130
  800af8:	21310204 	addi	r4,r4,-15352
  800afc:	08030980 	call	803098 <puts>
            buttons_tested = buttons_tested | 0x8;
  800b00:	e0bffd03 	ldbu	r2,-12(fp)
  800b04:	10800214 	ori	r2,r2,8
  800b08:	e0bffd05 	stb	r2,-12(fp)
          }
          break;
  800b0c:	0001883a 	nop
  
  /* Loop until all buttons have been pressed.
   * This happens when buttons_tested == all_tested.
   */
  
  while (  buttons_tested != all_tested )
  800b10:	e0fffd03 	ldbu	r3,-12(fp)
  800b14:	e0bfff03 	ldbu	r2,-4(fp)
  800b18:	18bfbe1e 	bne	r3,r2,800a14 <__alt_data_end+0xff800a14>
          break;
      }
    }
  }
  /* Disable the button pio. */
  disable_button_pio();
  800b1c:	08009840 	call	800984 <disable_button_pio>

  printf ("\nAll Buttons (PB0-PB3) were pressed, at least, once.\n");
  800b20:	010020b4 	movhi	r4,130
  800b24:	21310904 	addi	r4,r4,-15324
  800b28:	08030980 	call	803098 <puts>
  usleep(2000000);
  800b2c:	010007f4 	movhi	r4,31
  800b30:	21212004 	addi	r4,r4,-31616
  800b34:	0818c340 	call	818c34 <usleep>
  return;
  800b38:	0001883a 	nop
}
  800b3c:	e037883a 	mov	sp,fp
  800b40:	dfc00117 	ldw	ra,4(sp)
  800b44:	df000017 	ldw	fp,0(sp)
  800b48:	dec00204 	addi	sp,sp,8
  800b4c:	f800283a 	ret

00800b50 <sevenseg_set_hex>:
 * the variable 'hex' into what is displayed on
 * the Seven Segment Display.
 *********************************************/
 
static void sevenseg_set_hex(alt_u8 hex)
{
  800b50:	defffd04 	addi	sp,sp,-12
  800b54:	df000215 	stw	fp,8(sp)
  800b58:	df000204 	addi	fp,sp,8
  800b5c:	2005883a 	mov	r2,r4
  800b60:	e0bfff05 	stb	r2,-4(fp)
  static alt_u8 segments[16] = {
    0x81, 0xCF, 0x92, 0x86, 0xCC, 0xA4, 0xA0, 0x8F, 0x80, 0x84, /* 0-9 */
    0x88, 0xE0, 0xF2, 0xC2, 0xB0, 0xB8 };                       /* a-f */

  alt_u32 data = segments[hex & 15] | (segments[(hex >> 4) & 15] << 8);
  800b64:	e0bfff03 	ldbu	r2,-4(fp)
  800b68:	10c003cc 	andi	r3,r2,15
  800b6c:	008020b4 	movhi	r2,130
  800b70:	10b34404 	addi	r2,r2,-13040
  800b74:	10c5883a 	add	r2,r2,r3
  800b78:	10800003 	ldbu	r2,0(r2)
  800b7c:	10c03fcc 	andi	r3,r2,255
  800b80:	e0bfff03 	ldbu	r2,-4(fp)
  800b84:	1004d13a 	srli	r2,r2,4
  800b88:	10803fcc 	andi	r2,r2,255
  800b8c:	110003cc 	andi	r4,r2,15
  800b90:	008020b4 	movhi	r2,130
  800b94:	10b34404 	addi	r2,r2,-13040
  800b98:	1105883a 	add	r2,r2,r4
  800b9c:	10800003 	ldbu	r2,0(r2)
  800ba0:	10803fcc 	andi	r2,r2,255
  800ba4:	1004923a 	slli	r2,r2,8
  800ba8:	1884b03a 	or	r2,r3,r2
  800bac:	e0bffe15 	stw	r2,-8(fp)

  IOWR_ALTERA_AVALON_PIO_DATA(SEVEN_SEG_PIO_BASE, data);
  800bb0:	e0fffe17 	ldw	r3,-8(fp)
  800bb4:	00804034 	movhi	r2,256
  800bb8:	10840804 	addi	r2,r2,4128
  800bbc:	10c00035 	stwio	r3,0(r2)
}
  800bc0:	0001883a 	nop
  800bc4:	e037883a 	mov	sp,fp
  800bc8:	df000017 	ldw	fp,0(sp)
  800bcc:	dec00104 	addi	sp,sp,4
  800bd0:	f800283a 	ret

00800bd4 <SevenSegCount>:
 * Displays from 0 to FF on the Seven Segment Display with
 * a 0.25s count delay implemented in a for loop.
 *******************************************/
 
static void SevenSegCount( void )
{
  800bd4:	defffd04 	addi	sp,sp,-12
  800bd8:	dfc00215 	stw	ra,8(sp)
  800bdc:	df000115 	stw	fp,4(sp)
  800be0:	df000104 	addi	fp,sp,4
  alt_u32 count;
  for (count = 0; count <= 0xff; count++)
  800be4:	e03fff15 	stw	zero,-4(fp)
  800be8:	00000906 	br	800c10 <SevenSegCount+0x3c>
  {
    sevenseg_set_hex( count );
  800bec:	e0bfff17 	ldw	r2,-4(fp)
  800bf0:	10803fcc 	andi	r2,r2,255
  800bf4:	1009883a 	mov	r4,r2
  800bf8:	0800b500 	call	800b50 <sevenseg_set_hex>
    usleep(50000);
  800bfc:	0130d414 	movui	r4,50000
  800c00:	0818c340 	call	818c34 <usleep>
 *******************************************/
 
static void SevenSegCount( void )
{
  alt_u32 count;
  for (count = 0; count <= 0xff; count++)
  800c04:	e0bfff17 	ldw	r2,-4(fp)
  800c08:	10800044 	addi	r2,r2,1
  800c0c:	e0bfff15 	stw	r2,-4(fp)
  800c10:	e0bfff17 	ldw	r2,-4(fp)
  800c14:	10804030 	cmpltui	r2,r2,256
  800c18:	103ff41e 	bne	r2,zero,800bec <__alt_data_end+0xff800bec>
  {
    sevenseg_set_hex( count );
    usleep(50000);
  }
}
  800c1c:	0001883a 	nop
  800c20:	e037883a 	mov	sp,fp
  800c24:	dfc00117 	ldw	ra,4(sp)
  800c28:	df000017 	ldw	fp,0(sp)
  800c2c:	dec00204 	addi	sp,sp,8
  800c30:	f800283a 	ret

00800c34 <SevenSegControl>:
 * Displays selected Seven Segment segments.
 * 
 ******************************************/

static void SevenSegControl(void)
{
  800c34:	defffb04 	addi	sp,sp,-20
  800c38:	dfc00415 	stw	ra,16(sp)
  800c3c:	df000315 	stw	fp,12(sp)
  800c40:	df000304 	addi	fp,sp,12
  alt_32 bits;
  alt_32 keyBit;
  static char ch;
  
  /* Turn all segments off at start of test. */
  bits = 0xffff;
  800c44:	00bfffd4 	movui	r2,65535
  800c48:	e0bffd15 	stw	r2,-12(fp)
  IOWR_ALTERA_AVALON_PIO_DATA(SEVEN_SEG_PIO_BASE, bits);
  800c4c:	00804034 	movhi	r2,256
  800c50:	10840804 	addi	r2,r2,4128
  800c54:	e0fffd17 	ldw	r3,-12(fp)
  800c58:	10c00035 	stwio	r3,0(r2)

  printf("\n");
  800c5c:	01000284 	movi	r4,10
  800c60:	0802fc00 	call	802fc0 <putchar>
  printf("\n");
  800c64:	01000284 	movi	r4,10
  800c68:	0802fc00 	call	802fc0 <putchar>
  printf("         +-A--+     +-a--+\n");
  800c6c:	010020b4 	movhi	r4,130
  800c70:	21311704 	addi	r4,r4,-15268
  800c74:	08030980 	call	803098 <puts>
  printf("         |    |     |    |\n");
  800c78:	010020b4 	movhi	r4,130
  800c7c:	21311e04 	addi	r4,r4,-15240
  800c80:	08030980 	call	803098 <puts>
  printf("         F    B     f    b\n");
  800c84:	010020b4 	movhi	r4,130
  800c88:	21312504 	addi	r4,r4,-15212
  800c8c:	08030980 	call	803098 <puts>
  printf("         |    |     |    |\n");
  800c90:	010020b4 	movhi	r4,130
  800c94:	21311e04 	addi	r4,r4,-15240
  800c98:	08030980 	call	803098 <puts>
  printf("         +-G--+     +-g--+\n");
  800c9c:	010020b4 	movhi	r4,130
  800ca0:	21312c04 	addi	r4,r4,-15184
  800ca4:	08030980 	call	803098 <puts>
  printf("         |    |     |    |\n");
  800ca8:	010020b4 	movhi	r4,130
  800cac:	21311e04 	addi	r4,r4,-15240
  800cb0:	08030980 	call	803098 <puts>
  printf("         E    C     e    c\n");
  800cb4:	010020b4 	movhi	r4,130
  800cb8:	21313304 	addi	r4,r4,-15156
  800cbc:	08030980 	call	803098 <puts>
  printf("         |    |     |    |\n");
  800cc0:	010020b4 	movhi	r4,130
  800cc4:	21311e04 	addi	r4,r4,-15240
  800cc8:	08030980 	call	803098 <puts>
  printf("         +-D--+ (H) +-d--+ (h)\n");
  800ccc:	010020b4 	movhi	r4,130
  800cd0:	21313a04 	addi	r4,r4,-15128
  800cd4:	08030980 	call	803098 <puts>
  printf("\n");
  800cd8:	01000284 	movi	r4,10
  800cdc:	0802fc00 	call	802fc0 <putchar>
  printf("Press 'q' [Followed by <enter>] to exit this test.\n");
  800ce0:	010020b4 	movhi	r4,130
  800ce4:	21314204 	addi	r4,r4,-15096
  800ce8:	08030980 	call	803098 <puts>
  
  do
  {
    /* Get terminal input. */
    GetInputString( entry, sizeof(entry), stdin);
  800cec:	d0a00117 	ldw	r2,-32764(gp)
  800cf0:	10c00117 	ldw	r3,4(r2)
  800cf4:	e0bfff04 	addi	r2,fp,-4
  800cf8:	180d883a 	mov	r6,r3
  800cfc:	01400104 	movi	r5,4
  800d00:	1009883a 	mov	r4,r2
  800d04:	080034c0 	call	80034c <GetInputString>
    sscanf( entry, "%c\n", &ch );
  800d08:	e0bfff04 	addi	r2,fp,-4
  800d0c:	d1a76a44 	addi	r6,gp,-25175
  800d10:	014020b4 	movhi	r5,130
  800d14:	29703e04 	addi	r5,r5,-16136
  800d18:	1009883a 	mov	r4,r2
  800d1c:	08033780 	call	803378 <sscanf>
    /* SSD pattern algorithm. */
    keyBit = 0;
  800d20:	e03ffe15 	stw	zero,-8(fp)
    if(ch >= 'a' && ch <= 'g')
  800d24:	d0a76a43 	ldbu	r2,-25175(gp)
  800d28:	10803fcc 	andi	r2,r2,255
  800d2c:	1080201c 	xori	r2,r2,128
  800d30:	10bfe004 	addi	r2,r2,-128
  800d34:	10801850 	cmplti	r2,r2,97
  800d38:	1000101e 	bne	r2,zero,800d7c <SevenSegControl+0x148>
  800d3c:	d0a76a43 	ldbu	r2,-25175(gp)
  800d40:	10803fcc 	andi	r2,r2,255
  800d44:	1080201c 	xori	r2,r2,128
  800d48:	10bfe004 	addi	r2,r2,-128
  800d4c:	10801a08 	cmpgei	r2,r2,104
  800d50:	10000a1e 	bne	r2,zero,800d7c <SevenSegControl+0x148>
      keyBit = 1 << ('g' - ch);
  800d54:	d0a76a43 	ldbu	r2,-25175(gp)
  800d58:	10803fcc 	andi	r2,r2,255
  800d5c:	1080201c 	xori	r2,r2,128
  800d60:	10bfe004 	addi	r2,r2,-128
  800d64:	00c019c4 	movi	r3,103
  800d68:	1885c83a 	sub	r2,r3,r2
  800d6c:	00c00044 	movi	r3,1
  800d70:	1884983a 	sll	r2,r3,r2
  800d74:	e0bffe15 	stw	r2,-8(fp)
  800d78:	00002706 	br	800e18 <SevenSegControl+0x1e4>
    else if(ch == 'h')
  800d7c:	d0a76a43 	ldbu	r2,-25175(gp)
  800d80:	10803fcc 	andi	r2,r2,255
  800d84:	1080201c 	xori	r2,r2,128
  800d88:	10bfe004 	addi	r2,r2,-128
  800d8c:	10801a18 	cmpnei	r2,r2,104
  800d90:	1000031e 	bne	r2,zero,800da0 <SevenSegControl+0x16c>
      keyBit = 1 << 7;
  800d94:	00802004 	movi	r2,128
  800d98:	e0bffe15 	stw	r2,-8(fp)
  800d9c:	00001e06 	br	800e18 <SevenSegControl+0x1e4>
    else if(ch >= 'A' && ch <= 'G')
  800da0:	d0a76a43 	ldbu	r2,-25175(gp)
  800da4:	10803fcc 	andi	r2,r2,255
  800da8:	1080201c 	xori	r2,r2,128
  800dac:	10bfe004 	addi	r2,r2,-128
  800db0:	10801050 	cmplti	r2,r2,65
  800db4:	1000101e 	bne	r2,zero,800df8 <SevenSegControl+0x1c4>
  800db8:	d0a76a43 	ldbu	r2,-25175(gp)
  800dbc:	10803fcc 	andi	r2,r2,255
  800dc0:	1080201c 	xori	r2,r2,128
  800dc4:	10bfe004 	addi	r2,r2,-128
  800dc8:	10801208 	cmpgei	r2,r2,72
  800dcc:	10000a1e 	bne	r2,zero,800df8 <SevenSegControl+0x1c4>
      keyBit = 1 << ('G' - ch + 8);
  800dd0:	d0a76a43 	ldbu	r2,-25175(gp)
  800dd4:	10803fcc 	andi	r2,r2,255
  800dd8:	1080201c 	xori	r2,r2,128
  800ddc:	10bfe004 	addi	r2,r2,-128
  800de0:	00c013c4 	movi	r3,79
  800de4:	1885c83a 	sub	r2,r3,r2
  800de8:	00c00044 	movi	r3,1
  800dec:	1884983a 	sll	r2,r3,r2
  800df0:	e0bffe15 	stw	r2,-8(fp)
  800df4:	00000806 	br	800e18 <SevenSegControl+0x1e4>
    else if(ch == 'H')
  800df8:	d0a76a43 	ldbu	r2,-25175(gp)
  800dfc:	10803fcc 	andi	r2,r2,255
  800e00:	1080201c 	xori	r2,r2,128
  800e04:	10bfe004 	addi	r2,r2,-128
  800e08:	10801218 	cmpnei	r2,r2,72
  800e0c:	1000021e 	bne	r2,zero,800e18 <SevenSegControl+0x1e4>
      keyBit = 1 << 15;
  800e10:	00a00014 	movui	r2,32768
  800e14:	e0bffe15 	stw	r2,-8(fp)
    bits ^= keyBit;
  800e18:	e0fffd17 	ldw	r3,-12(fp)
  800e1c:	e0bffe17 	ldw	r2,-8(fp)
  800e20:	1884f03a 	xor	r2,r3,r2
  800e24:	e0bffd15 	stw	r2,-12(fp)
    IOWR_ALTERA_AVALON_PIO_DATA(SEVEN_SEG_PIO_BASE, bits);
  800e28:	00804034 	movhi	r2,256
  800e2c:	10840804 	addi	r2,r2,4128
  800e30:	e0fffd17 	ldw	r3,-12(fp)
  800e34:	10c00035 	stwio	r3,0(r2)
  }
  while( ch != 'q' );
  800e38:	d0a76a43 	ldbu	r2,-25175(gp)
  800e3c:	10803fcc 	andi	r2,r2,255
  800e40:	1080201c 	xori	r2,r2,128
  800e44:	10bfe004 	addi	r2,r2,-128
  800e48:	10801c58 	cmpnei	r2,r2,113
  800e4c:	103fa71e 	bne	r2,zero,800cec <__alt_data_end+0xff800cec>
}
  800e50:	0001883a 	nop
  800e54:	e037883a 	mov	sp,fp
  800e58:	dfc00117 	ldw	ra,4(sp)
  800e5c:	df000017 	ldw	fp,0(sp)
  800e60:	dec00204 	addi	sp,sp,8
  800e64:	f800283a 	ret

00800e68 <main>:
}

#endif

int main()
{
  800e68:	defffd04 	addi	sp,sp,-12
  800e6c:	dfc00215 	stw	ra,8(sp)
  800e70:	df000115 	stw	fp,4(sp)
  800e74:	df000104 	addi	fp,sp,4
  /* Declare variable for received character. */
  int ch;
  while (1)
  {
    ch = TopMenu();
  800e78:	08005980 	call	800598 <TopMenu>
  800e7c:	10803fcc 	andi	r2,r2,255
  800e80:	1080201c 	xori	r2,r2,128
  800e84:	10bfe004 	addi	r2,r2,-128
  800e88:	e0bfff15 	stw	r2,-4(fp)
    if (ch == 'q')
  800e8c:	e0bfff17 	ldw	r2,-4(fp)
  800e90:	10801c58 	cmpnei	r2,r2,113
  800e94:	103ff81e 	bne	r2,zero,800e78 <__alt_data_end+0xff800e78>
    {
      printf( "\nExiting from Board Diagnostics.\n");
  800e98:	010020b4 	movhi	r4,130
  800e9c:	21314f04 	addi	r4,r4,-15044
  800ea0:	08030980 	call	803098 <puts>
      /* Send EOT to nios2-terminal on the other side of the link. */
      printf( "%c", EOT );
  800ea4:	01000104 	movi	r4,4
  800ea8:	0802fc00 	call	802fc0 <putchar>
      break;
  800eac:	0001883a 	nop
    }
  }
  return( 0 );
  800eb0:	0005883a 	mov	r2,zero
}
  800eb4:	e037883a 	mov	sp,fp
  800eb8:	dfc00117 	ldw	ra,4(sp)
  800ebc:	df000017 	ldw	fp,0(sp)
  800ec0:	dec00204 	addi	sp,sp,8
  800ec4:	f800283a 	ret

00800ec8 <_fclose_r>:
  800ec8:	28003926 	beq	r5,zero,800fb0 <_fclose_r+0xe8>
  800ecc:	defffc04 	addi	sp,sp,-16
  800ed0:	dc400115 	stw	r17,4(sp)
  800ed4:	dc000015 	stw	r16,0(sp)
  800ed8:	dfc00315 	stw	ra,12(sp)
  800edc:	dc800215 	stw	r18,8(sp)
  800ee0:	2023883a 	mov	r17,r4
  800ee4:	2821883a 	mov	r16,r5
  800ee8:	20000226 	beq	r4,zero,800ef4 <_fclose_r+0x2c>
  800eec:	20800e17 	ldw	r2,56(r4)
  800ef0:	10002726 	beq	r2,zero,800f90 <_fclose_r+0xc8>
  800ef4:	8080030f 	ldh	r2,12(r16)
  800ef8:	1000071e 	bne	r2,zero,800f18 <_fclose_r+0x50>
  800efc:	0005883a 	mov	r2,zero
  800f00:	dfc00317 	ldw	ra,12(sp)
  800f04:	dc800217 	ldw	r18,8(sp)
  800f08:	dc400117 	ldw	r17,4(sp)
  800f0c:	dc000017 	ldw	r16,0(sp)
  800f10:	dec00404 	addi	sp,sp,16
  800f14:	f800283a 	ret
  800f18:	800b883a 	mov	r5,r16
  800f1c:	8809883a 	mov	r4,r17
  800f20:	0800fcc0 	call	800fcc <__sflush_r>
  800f24:	1025883a 	mov	r18,r2
  800f28:	80800b17 	ldw	r2,44(r16)
  800f2c:	10000426 	beq	r2,zero,800f40 <_fclose_r+0x78>
  800f30:	81400717 	ldw	r5,28(r16)
  800f34:	8809883a 	mov	r4,r17
  800f38:	103ee83a 	callr	r2
  800f3c:	10001616 	blt	r2,zero,800f98 <_fclose_r+0xd0>
  800f40:	8080030b 	ldhu	r2,12(r16)
  800f44:	1080200c 	andi	r2,r2,128
  800f48:	1000151e 	bne	r2,zero,800fa0 <_fclose_r+0xd8>
  800f4c:	81400c17 	ldw	r5,48(r16)
  800f50:	28000526 	beq	r5,zero,800f68 <_fclose_r+0xa0>
  800f54:	80801004 	addi	r2,r16,64
  800f58:	28800226 	beq	r5,r2,800f64 <_fclose_r+0x9c>
  800f5c:	8809883a 	mov	r4,r17
  800f60:	08018900 	call	801890 <_free_r>
  800f64:	80000c15 	stw	zero,48(r16)
  800f68:	81401117 	ldw	r5,68(r16)
  800f6c:	28000326 	beq	r5,zero,800f7c <_fclose_r+0xb4>
  800f70:	8809883a 	mov	r4,r17
  800f74:	08018900 	call	801890 <_free_r>
  800f78:	80001115 	stw	zero,68(r16)
  800f7c:	08015d40 	call	8015d4 <__sfp_lock_acquire>
  800f80:	8000030d 	sth	zero,12(r16)
  800f84:	08015d80 	call	8015d8 <__sfp_lock_release>
  800f88:	9005883a 	mov	r2,r18
  800f8c:	003fdc06 	br	800f00 <__alt_data_end+0xff800f00>
  800f90:	08015c40 	call	8015c4 <__sinit>
  800f94:	003fd706 	br	800ef4 <__alt_data_end+0xff800ef4>
  800f98:	04bfffc4 	movi	r18,-1
  800f9c:	003fe806 	br	800f40 <__alt_data_end+0xff800f40>
  800fa0:	81400417 	ldw	r5,16(r16)
  800fa4:	8809883a 	mov	r4,r17
  800fa8:	08018900 	call	801890 <_free_r>
  800fac:	003fe706 	br	800f4c <__alt_data_end+0xff800f4c>
  800fb0:	0005883a 	mov	r2,zero
  800fb4:	f800283a 	ret

00800fb8 <fclose>:
  800fb8:	008020b4 	movhi	r2,130
  800fbc:	10ba8504 	addi	r2,r2,-5612
  800fc0:	200b883a 	mov	r5,r4
  800fc4:	11000017 	ldw	r4,0(r2)
  800fc8:	0800ec81 	jmpi	800ec8 <_fclose_r>

00800fcc <__sflush_r>:
  800fcc:	2880030b 	ldhu	r2,12(r5)
  800fd0:	defffb04 	addi	sp,sp,-20
  800fd4:	dcc00315 	stw	r19,12(sp)
  800fd8:	dc400115 	stw	r17,4(sp)
  800fdc:	dfc00415 	stw	ra,16(sp)
  800fe0:	dc800215 	stw	r18,8(sp)
  800fe4:	dc000015 	stw	r16,0(sp)
  800fe8:	10c0020c 	andi	r3,r2,8
  800fec:	2823883a 	mov	r17,r5
  800ff0:	2027883a 	mov	r19,r4
  800ff4:	1800311e 	bne	r3,zero,8010bc <__sflush_r+0xf0>
  800ff8:	28c00117 	ldw	r3,4(r5)
  800ffc:	10820014 	ori	r2,r2,2048
  801000:	2880030d 	sth	r2,12(r5)
  801004:	00c04b0e 	bge	zero,r3,801134 <__sflush_r+0x168>
  801008:	8a000a17 	ldw	r8,40(r17)
  80100c:	40002326 	beq	r8,zero,80109c <__sflush_r+0xd0>
  801010:	9c000017 	ldw	r16,0(r19)
  801014:	10c4000c 	andi	r3,r2,4096
  801018:	98000015 	stw	zero,0(r19)
  80101c:	18004826 	beq	r3,zero,801140 <__sflush_r+0x174>
  801020:	89801417 	ldw	r6,80(r17)
  801024:	10c0010c 	andi	r3,r2,4
  801028:	18000626 	beq	r3,zero,801044 <__sflush_r+0x78>
  80102c:	88c00117 	ldw	r3,4(r17)
  801030:	88800c17 	ldw	r2,48(r17)
  801034:	30cdc83a 	sub	r6,r6,r3
  801038:	10000226 	beq	r2,zero,801044 <__sflush_r+0x78>
  80103c:	88800f17 	ldw	r2,60(r17)
  801040:	308dc83a 	sub	r6,r6,r2
  801044:	89400717 	ldw	r5,28(r17)
  801048:	000f883a 	mov	r7,zero
  80104c:	9809883a 	mov	r4,r19
  801050:	403ee83a 	callr	r8
  801054:	00ffffc4 	movi	r3,-1
  801058:	10c04426 	beq	r2,r3,80116c <__sflush_r+0x1a0>
  80105c:	88c0030b 	ldhu	r3,12(r17)
  801060:	89000417 	ldw	r4,16(r17)
  801064:	88000115 	stw	zero,4(r17)
  801068:	197dffcc 	andi	r5,r3,63487
  80106c:	8940030d 	sth	r5,12(r17)
  801070:	89000015 	stw	r4,0(r17)
  801074:	18c4000c 	andi	r3,r3,4096
  801078:	18002c1e 	bne	r3,zero,80112c <__sflush_r+0x160>
  80107c:	89400c17 	ldw	r5,48(r17)
  801080:	9c000015 	stw	r16,0(r19)
  801084:	28000526 	beq	r5,zero,80109c <__sflush_r+0xd0>
  801088:	88801004 	addi	r2,r17,64
  80108c:	28800226 	beq	r5,r2,801098 <__sflush_r+0xcc>
  801090:	9809883a 	mov	r4,r19
  801094:	08018900 	call	801890 <_free_r>
  801098:	88000c15 	stw	zero,48(r17)
  80109c:	0005883a 	mov	r2,zero
  8010a0:	dfc00417 	ldw	ra,16(sp)
  8010a4:	dcc00317 	ldw	r19,12(sp)
  8010a8:	dc800217 	ldw	r18,8(sp)
  8010ac:	dc400117 	ldw	r17,4(sp)
  8010b0:	dc000017 	ldw	r16,0(sp)
  8010b4:	dec00504 	addi	sp,sp,20
  8010b8:	f800283a 	ret
  8010bc:	2c800417 	ldw	r18,16(r5)
  8010c0:	903ff626 	beq	r18,zero,80109c <__alt_data_end+0xff80109c>
  8010c4:	2c000017 	ldw	r16,0(r5)
  8010c8:	108000cc 	andi	r2,r2,3
  8010cc:	2c800015 	stw	r18,0(r5)
  8010d0:	84a1c83a 	sub	r16,r16,r18
  8010d4:	1000131e 	bne	r2,zero,801124 <__sflush_r+0x158>
  8010d8:	28800517 	ldw	r2,20(r5)
  8010dc:	88800215 	stw	r2,8(r17)
  8010e0:	04000316 	blt	zero,r16,8010f0 <__sflush_r+0x124>
  8010e4:	003fed06 	br	80109c <__alt_data_end+0xff80109c>
  8010e8:	90a5883a 	add	r18,r18,r2
  8010ec:	043feb0e 	bge	zero,r16,80109c <__alt_data_end+0xff80109c>
  8010f0:	88800917 	ldw	r2,36(r17)
  8010f4:	89400717 	ldw	r5,28(r17)
  8010f8:	800f883a 	mov	r7,r16
  8010fc:	900d883a 	mov	r6,r18
  801100:	9809883a 	mov	r4,r19
  801104:	103ee83a 	callr	r2
  801108:	80a1c83a 	sub	r16,r16,r2
  80110c:	00bff616 	blt	zero,r2,8010e8 <__alt_data_end+0xff8010e8>
  801110:	88c0030b 	ldhu	r3,12(r17)
  801114:	00bfffc4 	movi	r2,-1
  801118:	18c01014 	ori	r3,r3,64
  80111c:	88c0030d 	sth	r3,12(r17)
  801120:	003fdf06 	br	8010a0 <__alt_data_end+0xff8010a0>
  801124:	0005883a 	mov	r2,zero
  801128:	003fec06 	br	8010dc <__alt_data_end+0xff8010dc>
  80112c:	88801415 	stw	r2,80(r17)
  801130:	003fd206 	br	80107c <__alt_data_end+0xff80107c>
  801134:	28c00f17 	ldw	r3,60(r5)
  801138:	00ffb316 	blt	zero,r3,801008 <__alt_data_end+0xff801008>
  80113c:	003fd706 	br	80109c <__alt_data_end+0xff80109c>
  801140:	89400717 	ldw	r5,28(r17)
  801144:	000d883a 	mov	r6,zero
  801148:	01c00044 	movi	r7,1
  80114c:	9809883a 	mov	r4,r19
  801150:	403ee83a 	callr	r8
  801154:	100d883a 	mov	r6,r2
  801158:	00bfffc4 	movi	r2,-1
  80115c:	30801426 	beq	r6,r2,8011b0 <__sflush_r+0x1e4>
  801160:	8880030b 	ldhu	r2,12(r17)
  801164:	8a000a17 	ldw	r8,40(r17)
  801168:	003fae06 	br	801024 <__alt_data_end+0xff801024>
  80116c:	98c00017 	ldw	r3,0(r19)
  801170:	183fba26 	beq	r3,zero,80105c <__alt_data_end+0xff80105c>
  801174:	01000744 	movi	r4,29
  801178:	19000626 	beq	r3,r4,801194 <__sflush_r+0x1c8>
  80117c:	01000584 	movi	r4,22
  801180:	19000426 	beq	r3,r4,801194 <__sflush_r+0x1c8>
  801184:	88c0030b 	ldhu	r3,12(r17)
  801188:	18c01014 	ori	r3,r3,64
  80118c:	88c0030d 	sth	r3,12(r17)
  801190:	003fc306 	br	8010a0 <__alt_data_end+0xff8010a0>
  801194:	8880030b 	ldhu	r2,12(r17)
  801198:	88c00417 	ldw	r3,16(r17)
  80119c:	88000115 	stw	zero,4(r17)
  8011a0:	10bdffcc 	andi	r2,r2,63487
  8011a4:	8880030d 	sth	r2,12(r17)
  8011a8:	88c00015 	stw	r3,0(r17)
  8011ac:	003fb306 	br	80107c <__alt_data_end+0xff80107c>
  8011b0:	98800017 	ldw	r2,0(r19)
  8011b4:	103fea26 	beq	r2,zero,801160 <__alt_data_end+0xff801160>
  8011b8:	00c00744 	movi	r3,29
  8011bc:	10c00226 	beq	r2,r3,8011c8 <__sflush_r+0x1fc>
  8011c0:	00c00584 	movi	r3,22
  8011c4:	10c0031e 	bne	r2,r3,8011d4 <__sflush_r+0x208>
  8011c8:	9c000015 	stw	r16,0(r19)
  8011cc:	0005883a 	mov	r2,zero
  8011d0:	003fb306 	br	8010a0 <__alt_data_end+0xff8010a0>
  8011d4:	88c0030b 	ldhu	r3,12(r17)
  8011d8:	3005883a 	mov	r2,r6
  8011dc:	18c01014 	ori	r3,r3,64
  8011e0:	88c0030d 	sth	r3,12(r17)
  8011e4:	003fae06 	br	8010a0 <__alt_data_end+0xff8010a0>

008011e8 <_fflush_r>:
  8011e8:	defffd04 	addi	sp,sp,-12
  8011ec:	dc000115 	stw	r16,4(sp)
  8011f0:	dfc00215 	stw	ra,8(sp)
  8011f4:	2021883a 	mov	r16,r4
  8011f8:	20000226 	beq	r4,zero,801204 <_fflush_r+0x1c>
  8011fc:	20800e17 	ldw	r2,56(r4)
  801200:	10000c26 	beq	r2,zero,801234 <_fflush_r+0x4c>
  801204:	2880030f 	ldh	r2,12(r5)
  801208:	1000051e 	bne	r2,zero,801220 <_fflush_r+0x38>
  80120c:	0005883a 	mov	r2,zero
  801210:	dfc00217 	ldw	ra,8(sp)
  801214:	dc000117 	ldw	r16,4(sp)
  801218:	dec00304 	addi	sp,sp,12
  80121c:	f800283a 	ret
  801220:	8009883a 	mov	r4,r16
  801224:	dfc00217 	ldw	ra,8(sp)
  801228:	dc000117 	ldw	r16,4(sp)
  80122c:	dec00304 	addi	sp,sp,12
  801230:	0800fcc1 	jmpi	800fcc <__sflush_r>
  801234:	d9400015 	stw	r5,0(sp)
  801238:	08015c40 	call	8015c4 <__sinit>
  80123c:	d9400017 	ldw	r5,0(sp)
  801240:	003ff006 	br	801204 <__alt_data_end+0xff801204>

00801244 <fflush>:
  801244:	20000526 	beq	r4,zero,80125c <fflush+0x18>
  801248:	008020b4 	movhi	r2,130
  80124c:	10ba8504 	addi	r2,r2,-5612
  801250:	200b883a 	mov	r5,r4
  801254:	11000017 	ldw	r4,0(r2)
  801258:	08011e81 	jmpi	8011e8 <_fflush_r>
  80125c:	008020b4 	movhi	r2,130
  801260:	10ba8404 	addi	r2,r2,-5616
  801264:	11000017 	ldw	r4,0(r2)
  801268:	01402034 	movhi	r5,128
  80126c:	29447a04 	addi	r5,r5,4584
  801270:	08021401 	jmpi	802140 <_fwalk_reent>

00801274 <__fp_unlock>:
  801274:	0005883a 	mov	r2,zero
  801278:	f800283a 	ret

0080127c <_cleanup_r>:
  80127c:	01402034 	movhi	r5,128
  801280:	2943b204 	addi	r5,r5,3784
  801284:	08021401 	jmpi	802140 <_fwalk_reent>

00801288 <__sinit.part.1>:
  801288:	defff704 	addi	sp,sp,-36
  80128c:	00c02034 	movhi	r3,128
  801290:	dfc00815 	stw	ra,32(sp)
  801294:	ddc00715 	stw	r23,28(sp)
  801298:	dd800615 	stw	r22,24(sp)
  80129c:	dd400515 	stw	r21,20(sp)
  8012a0:	dd000415 	stw	r20,16(sp)
  8012a4:	dcc00315 	stw	r19,12(sp)
  8012a8:	dc800215 	stw	r18,8(sp)
  8012ac:	dc400115 	stw	r17,4(sp)
  8012b0:	dc000015 	stw	r16,0(sp)
  8012b4:	18c49f04 	addi	r3,r3,4732
  8012b8:	24000117 	ldw	r16,4(r4)
  8012bc:	20c00f15 	stw	r3,60(r4)
  8012c0:	2080bb04 	addi	r2,r4,748
  8012c4:	00c000c4 	movi	r3,3
  8012c8:	20c0b915 	stw	r3,740(r4)
  8012cc:	2080ba15 	stw	r2,744(r4)
  8012d0:	2000b815 	stw	zero,736(r4)
  8012d4:	05c00204 	movi	r23,8
  8012d8:	00800104 	movi	r2,4
  8012dc:	2025883a 	mov	r18,r4
  8012e0:	b80d883a 	mov	r6,r23
  8012e4:	81001704 	addi	r4,r16,92
  8012e8:	000b883a 	mov	r5,zero
  8012ec:	80000015 	stw	zero,0(r16)
  8012f0:	80000115 	stw	zero,4(r16)
  8012f4:	80000215 	stw	zero,8(r16)
  8012f8:	8080030d 	sth	r2,12(r16)
  8012fc:	80001915 	stw	zero,100(r16)
  801300:	8000038d 	sth	zero,14(r16)
  801304:	80000415 	stw	zero,16(r16)
  801308:	80000515 	stw	zero,20(r16)
  80130c:	80000615 	stw	zero,24(r16)
  801310:	0802dc40 	call	802dc4 <memset>
  801314:	05802034 	movhi	r22,128
  801318:	94400217 	ldw	r17,8(r18)
  80131c:	05402034 	movhi	r21,128
  801320:	05002034 	movhi	r20,128
  801324:	04c02034 	movhi	r19,128
  801328:	b58d1b04 	addi	r22,r22,13420
  80132c:	ad4d3204 	addi	r21,r21,13512
  801330:	a50d5104 	addi	r20,r20,13636
  801334:	9ccd6804 	addi	r19,r19,13728
  801338:	85800815 	stw	r22,32(r16)
  80133c:	85400915 	stw	r21,36(r16)
  801340:	85000a15 	stw	r20,40(r16)
  801344:	84c00b15 	stw	r19,44(r16)
  801348:	84000715 	stw	r16,28(r16)
  80134c:	00800284 	movi	r2,10
  801350:	8880030d 	sth	r2,12(r17)
  801354:	00800044 	movi	r2,1
  801358:	b80d883a 	mov	r6,r23
  80135c:	89001704 	addi	r4,r17,92
  801360:	000b883a 	mov	r5,zero
  801364:	88000015 	stw	zero,0(r17)
  801368:	88000115 	stw	zero,4(r17)
  80136c:	88000215 	stw	zero,8(r17)
  801370:	88001915 	stw	zero,100(r17)
  801374:	8880038d 	sth	r2,14(r17)
  801378:	88000415 	stw	zero,16(r17)
  80137c:	88000515 	stw	zero,20(r17)
  801380:	88000615 	stw	zero,24(r17)
  801384:	0802dc40 	call	802dc4 <memset>
  801388:	94000317 	ldw	r16,12(r18)
  80138c:	00800484 	movi	r2,18
  801390:	8c400715 	stw	r17,28(r17)
  801394:	8d800815 	stw	r22,32(r17)
  801398:	8d400915 	stw	r21,36(r17)
  80139c:	8d000a15 	stw	r20,40(r17)
  8013a0:	8cc00b15 	stw	r19,44(r17)
  8013a4:	8080030d 	sth	r2,12(r16)
  8013a8:	00800084 	movi	r2,2
  8013ac:	80000015 	stw	zero,0(r16)
  8013b0:	80000115 	stw	zero,4(r16)
  8013b4:	80000215 	stw	zero,8(r16)
  8013b8:	80001915 	stw	zero,100(r16)
  8013bc:	8080038d 	sth	r2,14(r16)
  8013c0:	80000415 	stw	zero,16(r16)
  8013c4:	80000515 	stw	zero,20(r16)
  8013c8:	80000615 	stw	zero,24(r16)
  8013cc:	b80d883a 	mov	r6,r23
  8013d0:	000b883a 	mov	r5,zero
  8013d4:	81001704 	addi	r4,r16,92
  8013d8:	0802dc40 	call	802dc4 <memset>
  8013dc:	00800044 	movi	r2,1
  8013e0:	84000715 	stw	r16,28(r16)
  8013e4:	85800815 	stw	r22,32(r16)
  8013e8:	85400915 	stw	r21,36(r16)
  8013ec:	85000a15 	stw	r20,40(r16)
  8013f0:	84c00b15 	stw	r19,44(r16)
  8013f4:	90800e15 	stw	r2,56(r18)
  8013f8:	dfc00817 	ldw	ra,32(sp)
  8013fc:	ddc00717 	ldw	r23,28(sp)
  801400:	dd800617 	ldw	r22,24(sp)
  801404:	dd400517 	ldw	r21,20(sp)
  801408:	dd000417 	ldw	r20,16(sp)
  80140c:	dcc00317 	ldw	r19,12(sp)
  801410:	dc800217 	ldw	r18,8(sp)
  801414:	dc400117 	ldw	r17,4(sp)
  801418:	dc000017 	ldw	r16,0(sp)
  80141c:	dec00904 	addi	sp,sp,36
  801420:	f800283a 	ret

00801424 <__fp_lock>:
  801424:	0005883a 	mov	r2,zero
  801428:	f800283a 	ret

0080142c <__sfmoreglue>:
  80142c:	defffc04 	addi	sp,sp,-16
  801430:	dc400115 	stw	r17,4(sp)
  801434:	2c7fffc4 	addi	r17,r5,-1
  801438:	8c401a24 	muli	r17,r17,104
  80143c:	dc800215 	stw	r18,8(sp)
  801440:	2825883a 	mov	r18,r5
  801444:	89401d04 	addi	r5,r17,116
  801448:	dc000015 	stw	r16,0(sp)
  80144c:	dfc00315 	stw	ra,12(sp)
  801450:	08025b80 	call	8025b8 <_malloc_r>
  801454:	1021883a 	mov	r16,r2
  801458:	10000726 	beq	r2,zero,801478 <__sfmoreglue+0x4c>
  80145c:	11000304 	addi	r4,r2,12
  801460:	10000015 	stw	zero,0(r2)
  801464:	14800115 	stw	r18,4(r2)
  801468:	11000215 	stw	r4,8(r2)
  80146c:	89801a04 	addi	r6,r17,104
  801470:	000b883a 	mov	r5,zero
  801474:	0802dc40 	call	802dc4 <memset>
  801478:	8005883a 	mov	r2,r16
  80147c:	dfc00317 	ldw	ra,12(sp)
  801480:	dc800217 	ldw	r18,8(sp)
  801484:	dc400117 	ldw	r17,4(sp)
  801488:	dc000017 	ldw	r16,0(sp)
  80148c:	dec00404 	addi	sp,sp,16
  801490:	f800283a 	ret

00801494 <__sfp>:
  801494:	defffb04 	addi	sp,sp,-20
  801498:	dc000015 	stw	r16,0(sp)
  80149c:	040020b4 	movhi	r16,130
  8014a0:	843a8404 	addi	r16,r16,-5616
  8014a4:	dcc00315 	stw	r19,12(sp)
  8014a8:	2027883a 	mov	r19,r4
  8014ac:	81000017 	ldw	r4,0(r16)
  8014b0:	dfc00415 	stw	ra,16(sp)
  8014b4:	dc800215 	stw	r18,8(sp)
  8014b8:	20800e17 	ldw	r2,56(r4)
  8014bc:	dc400115 	stw	r17,4(sp)
  8014c0:	1000021e 	bne	r2,zero,8014cc <__sfp+0x38>
  8014c4:	08012880 	call	801288 <__sinit.part.1>
  8014c8:	81000017 	ldw	r4,0(r16)
  8014cc:	2480b804 	addi	r18,r4,736
  8014d0:	047fffc4 	movi	r17,-1
  8014d4:	91000117 	ldw	r4,4(r18)
  8014d8:	94000217 	ldw	r16,8(r18)
  8014dc:	213fffc4 	addi	r4,r4,-1
  8014e0:	20000a16 	blt	r4,zero,80150c <__sfp+0x78>
  8014e4:	8080030f 	ldh	r2,12(r16)
  8014e8:	10000c26 	beq	r2,zero,80151c <__sfp+0x88>
  8014ec:	80c01d04 	addi	r3,r16,116
  8014f0:	00000206 	br	8014fc <__sfp+0x68>
  8014f4:	18bfe60f 	ldh	r2,-104(r3)
  8014f8:	10000826 	beq	r2,zero,80151c <__sfp+0x88>
  8014fc:	213fffc4 	addi	r4,r4,-1
  801500:	1c3ffd04 	addi	r16,r3,-12
  801504:	18c01a04 	addi	r3,r3,104
  801508:	247ffa1e 	bne	r4,r17,8014f4 <__alt_data_end+0xff8014f4>
  80150c:	90800017 	ldw	r2,0(r18)
  801510:	10001d26 	beq	r2,zero,801588 <__sfp+0xf4>
  801514:	1025883a 	mov	r18,r2
  801518:	003fee06 	br	8014d4 <__alt_data_end+0xff8014d4>
  80151c:	00bfffc4 	movi	r2,-1
  801520:	8080038d 	sth	r2,14(r16)
  801524:	00800044 	movi	r2,1
  801528:	8080030d 	sth	r2,12(r16)
  80152c:	80001915 	stw	zero,100(r16)
  801530:	80000015 	stw	zero,0(r16)
  801534:	80000215 	stw	zero,8(r16)
  801538:	80000115 	stw	zero,4(r16)
  80153c:	80000415 	stw	zero,16(r16)
  801540:	80000515 	stw	zero,20(r16)
  801544:	80000615 	stw	zero,24(r16)
  801548:	01800204 	movi	r6,8
  80154c:	000b883a 	mov	r5,zero
  801550:	81001704 	addi	r4,r16,92
  801554:	0802dc40 	call	802dc4 <memset>
  801558:	8005883a 	mov	r2,r16
  80155c:	80000c15 	stw	zero,48(r16)
  801560:	80000d15 	stw	zero,52(r16)
  801564:	80001115 	stw	zero,68(r16)
  801568:	80001215 	stw	zero,72(r16)
  80156c:	dfc00417 	ldw	ra,16(sp)
  801570:	dcc00317 	ldw	r19,12(sp)
  801574:	dc800217 	ldw	r18,8(sp)
  801578:	dc400117 	ldw	r17,4(sp)
  80157c:	dc000017 	ldw	r16,0(sp)
  801580:	dec00504 	addi	sp,sp,20
  801584:	f800283a 	ret
  801588:	01400104 	movi	r5,4
  80158c:	9809883a 	mov	r4,r19
  801590:	080142c0 	call	80142c <__sfmoreglue>
  801594:	90800015 	stw	r2,0(r18)
  801598:	103fde1e 	bne	r2,zero,801514 <__alt_data_end+0xff801514>
  80159c:	00800304 	movi	r2,12
  8015a0:	98800015 	stw	r2,0(r19)
  8015a4:	0005883a 	mov	r2,zero
  8015a8:	003ff006 	br	80156c <__alt_data_end+0xff80156c>

008015ac <_cleanup>:
  8015ac:	008020b4 	movhi	r2,130
  8015b0:	10ba8404 	addi	r2,r2,-5616
  8015b4:	11000017 	ldw	r4,0(r2)
  8015b8:	01402034 	movhi	r5,128
  8015bc:	2943b204 	addi	r5,r5,3784
  8015c0:	08021401 	jmpi	802140 <_fwalk_reent>

008015c4 <__sinit>:
  8015c4:	20800e17 	ldw	r2,56(r4)
  8015c8:	10000126 	beq	r2,zero,8015d0 <__sinit+0xc>
  8015cc:	f800283a 	ret
  8015d0:	08012881 	jmpi	801288 <__sinit.part.1>

008015d4 <__sfp_lock_acquire>:
  8015d4:	f800283a 	ret

008015d8 <__sfp_lock_release>:
  8015d8:	f800283a 	ret

008015dc <__sinit_lock_acquire>:
  8015dc:	f800283a 	ret

008015e0 <__sinit_lock_release>:
  8015e0:	f800283a 	ret

008015e4 <__fp_lock_all>:
  8015e4:	008020b4 	movhi	r2,130
  8015e8:	10ba8504 	addi	r2,r2,-5612
  8015ec:	11000017 	ldw	r4,0(r2)
  8015f0:	01402034 	movhi	r5,128
  8015f4:	29450904 	addi	r5,r5,5156
  8015f8:	080207c1 	jmpi	80207c <_fwalk>

008015fc <__fp_unlock_all>:
  8015fc:	008020b4 	movhi	r2,130
  801600:	10ba8504 	addi	r2,r2,-5612
  801604:	11000017 	ldw	r4,0(r2)
  801608:	01402034 	movhi	r5,128
  80160c:	29449d04 	addi	r5,r5,4724
  801610:	080207c1 	jmpi	80207c <_fwalk>

00801614 <_fopen_r>:
  801614:	defffa04 	addi	sp,sp,-24
  801618:	3005883a 	mov	r2,r6
  80161c:	dcc00415 	stw	r19,16(sp)
  801620:	d80d883a 	mov	r6,sp
  801624:	2827883a 	mov	r19,r5
  801628:	100b883a 	mov	r5,r2
  80162c:	dc800315 	stw	r18,12(sp)
  801630:	dfc00515 	stw	ra,20(sp)
  801634:	dc400215 	stw	r17,8(sp)
  801638:	dc000115 	stw	r16,4(sp)
  80163c:	2025883a 	mov	r18,r4
  801640:	0808b5c0 	call	808b5c <__sflags>
  801644:	10002726 	beq	r2,zero,8016e4 <_fopen_r+0xd0>
  801648:	9009883a 	mov	r4,r18
  80164c:	1023883a 	mov	r17,r2
  801650:	08014940 	call	801494 <__sfp>
  801654:	1021883a 	mov	r16,r2
  801658:	10002226 	beq	r2,zero,8016e4 <_fopen_r+0xd0>
  80165c:	d9800017 	ldw	r6,0(sp)
  801660:	01c06d84 	movi	r7,438
  801664:	980b883a 	mov	r5,r19
  801668:	9009883a 	mov	r4,r18
  80166c:	0802eec0 	call	802eec <_open_r>
  801670:	10001916 	blt	r2,zero,8016d8 <_fopen_r+0xc4>
  801674:	8080038d 	sth	r2,14(r16)
  801678:	00802034 	movhi	r2,128
  80167c:	108d1b04 	addi	r2,r2,13420
  801680:	80800815 	stw	r2,32(r16)
  801684:	00802034 	movhi	r2,128
  801688:	108d3204 	addi	r2,r2,13512
  80168c:	80800915 	stw	r2,36(r16)
  801690:	00802034 	movhi	r2,128
  801694:	108d5104 	addi	r2,r2,13636
  801698:	80800a15 	stw	r2,40(r16)
  80169c:	00802034 	movhi	r2,128
  8016a0:	108d6804 	addi	r2,r2,13728
  8016a4:	8440030d 	sth	r17,12(r16)
  8016a8:	84000715 	stw	r16,28(r16)
  8016ac:	80800b15 	stw	r2,44(r16)
  8016b0:	8c40400c 	andi	r17,r17,256
  8016b4:	88000d1e 	bne	r17,zero,8016ec <_fopen_r+0xd8>
  8016b8:	8005883a 	mov	r2,r16
  8016bc:	dfc00517 	ldw	ra,20(sp)
  8016c0:	dcc00417 	ldw	r19,16(sp)
  8016c4:	dc800317 	ldw	r18,12(sp)
  8016c8:	dc400217 	ldw	r17,8(sp)
  8016cc:	dc000117 	ldw	r16,4(sp)
  8016d0:	dec00604 	addi	sp,sp,24
  8016d4:	f800283a 	ret
  8016d8:	08015d40 	call	8015d4 <__sfp_lock_acquire>
  8016dc:	8000030d 	sth	zero,12(r16)
  8016e0:	08015d80 	call	8015d8 <__sfp_lock_release>
  8016e4:	0005883a 	mov	r2,zero
  8016e8:	003ff406 	br	8016bc <__alt_data_end+0xff8016bc>
  8016ec:	01c00084 	movi	r7,2
  8016f0:	000d883a 	mov	r6,zero
  8016f4:	800b883a 	mov	r5,r16
  8016f8:	9009883a 	mov	r4,r18
  8016fc:	0801ba00 	call	801ba0 <_fseek_r>
  801700:	8005883a 	mov	r2,r16
  801704:	003fed06 	br	8016bc <__alt_data_end+0xff8016bc>

00801708 <fopen>:
  801708:	008020b4 	movhi	r2,130
  80170c:	10ba8504 	addi	r2,r2,-5612
  801710:	280d883a 	mov	r6,r5
  801714:	200b883a 	mov	r5,r4
  801718:	11000017 	ldw	r4,0(r2)
  80171c:	08016141 	jmpi	801614 <_fopen_r>

00801720 <_fprintf_r>:
  801720:	defffe04 	addi	sp,sp,-8
  801724:	2809883a 	mov	r4,r5
  801728:	300b883a 	mov	r5,r6
  80172c:	dfc00015 	stw	ra,0(sp)
  801730:	d9c00115 	stw	r7,4(sp)
  801734:	d9800104 	addi	r6,sp,4
  801738:	0806ff40 	call	806ff4 <__vfprintf_internal>
  80173c:	dfc00017 	ldw	ra,0(sp)
  801740:	dec00204 	addi	sp,sp,8
  801744:	f800283a 	ret

00801748 <fprintf>:
  801748:	defffd04 	addi	sp,sp,-12
  80174c:	dfc00015 	stw	ra,0(sp)
  801750:	d9800115 	stw	r6,4(sp)
  801754:	d9c00215 	stw	r7,8(sp)
  801758:	d9800104 	addi	r6,sp,4
  80175c:	0806ff40 	call	806ff4 <__vfprintf_internal>
  801760:	dfc00017 	ldw	ra,0(sp)
  801764:	dec00304 	addi	sp,sp,12
  801768:	f800283a 	ret

0080176c <_malloc_trim_r>:
  80176c:	defffb04 	addi	sp,sp,-20
  801770:	dcc00315 	stw	r19,12(sp)
  801774:	04c020b4 	movhi	r19,130
  801778:	dc800215 	stw	r18,8(sp)
  80177c:	dc400115 	stw	r17,4(sp)
  801780:	dc000015 	stw	r16,0(sp)
  801784:	dfc00415 	stw	ra,16(sp)
  801788:	2821883a 	mov	r16,r5
  80178c:	9cf45104 	addi	r19,r19,-11964
  801790:	2025883a 	mov	r18,r4
  801794:	081874c0 	call	81874c <__malloc_lock>
  801798:	98800217 	ldw	r2,8(r19)
  80179c:	14400117 	ldw	r17,4(r2)
  8017a0:	00bfff04 	movi	r2,-4
  8017a4:	88a2703a 	and	r17,r17,r2
  8017a8:	8c21c83a 	sub	r16,r17,r16
  8017ac:	8403fbc4 	addi	r16,r16,4079
  8017b0:	8020d33a 	srli	r16,r16,12
  8017b4:	0083ffc4 	movi	r2,4095
  8017b8:	843fffc4 	addi	r16,r16,-1
  8017bc:	8020933a 	slli	r16,r16,12
  8017c0:	1400060e 	bge	r2,r16,8017dc <_malloc_trim_r+0x70>
  8017c4:	000b883a 	mov	r5,zero
  8017c8:	9009883a 	mov	r4,r18
  8017cc:	08033240 	call	803324 <_sbrk_r>
  8017d0:	98c00217 	ldw	r3,8(r19)
  8017d4:	1c47883a 	add	r3,r3,r17
  8017d8:	10c00a26 	beq	r2,r3,801804 <_malloc_trim_r+0x98>
  8017dc:	9009883a 	mov	r4,r18
  8017e0:	08187700 	call	818770 <__malloc_unlock>
  8017e4:	0005883a 	mov	r2,zero
  8017e8:	dfc00417 	ldw	ra,16(sp)
  8017ec:	dcc00317 	ldw	r19,12(sp)
  8017f0:	dc800217 	ldw	r18,8(sp)
  8017f4:	dc400117 	ldw	r17,4(sp)
  8017f8:	dc000017 	ldw	r16,0(sp)
  8017fc:	dec00504 	addi	sp,sp,20
  801800:	f800283a 	ret
  801804:	040bc83a 	sub	r5,zero,r16
  801808:	9009883a 	mov	r4,r18
  80180c:	08033240 	call	803324 <_sbrk_r>
  801810:	00ffffc4 	movi	r3,-1
  801814:	10c00d26 	beq	r2,r3,80184c <_malloc_trim_r+0xe0>
  801818:	00c020b4 	movhi	r3,130
  80181c:	18c1fe04 	addi	r3,r3,2040
  801820:	18800017 	ldw	r2,0(r3)
  801824:	99000217 	ldw	r4,8(r19)
  801828:	8c23c83a 	sub	r17,r17,r16
  80182c:	8c400054 	ori	r17,r17,1
  801830:	1421c83a 	sub	r16,r2,r16
  801834:	24400115 	stw	r17,4(r4)
  801838:	9009883a 	mov	r4,r18
  80183c:	1c000015 	stw	r16,0(r3)
  801840:	08187700 	call	818770 <__malloc_unlock>
  801844:	00800044 	movi	r2,1
  801848:	003fe706 	br	8017e8 <__alt_data_end+0xff8017e8>
  80184c:	000b883a 	mov	r5,zero
  801850:	9009883a 	mov	r4,r18
  801854:	08033240 	call	803324 <_sbrk_r>
  801858:	99000217 	ldw	r4,8(r19)
  80185c:	014003c4 	movi	r5,15
  801860:	1107c83a 	sub	r3,r2,r4
  801864:	28ffdd0e 	bge	r5,r3,8017dc <__alt_data_end+0xff8017dc>
  801868:	014020b4 	movhi	r5,130
  80186c:	297a8604 	addi	r5,r5,-5608
  801870:	29400017 	ldw	r5,0(r5)
  801874:	18c00054 	ori	r3,r3,1
  801878:	20c00115 	stw	r3,4(r4)
  80187c:	00c020b4 	movhi	r3,130
  801880:	1145c83a 	sub	r2,r2,r5
  801884:	18c1fe04 	addi	r3,r3,2040
  801888:	18800015 	stw	r2,0(r3)
  80188c:	003fd306 	br	8017dc <__alt_data_end+0xff8017dc>

00801890 <_free_r>:
  801890:	28004126 	beq	r5,zero,801998 <_free_r+0x108>
  801894:	defffd04 	addi	sp,sp,-12
  801898:	dc400115 	stw	r17,4(sp)
  80189c:	dc000015 	stw	r16,0(sp)
  8018a0:	2023883a 	mov	r17,r4
  8018a4:	2821883a 	mov	r16,r5
  8018a8:	dfc00215 	stw	ra,8(sp)
  8018ac:	081874c0 	call	81874c <__malloc_lock>
  8018b0:	81ffff17 	ldw	r7,-4(r16)
  8018b4:	00bfff84 	movi	r2,-2
  8018b8:	010020b4 	movhi	r4,130
  8018bc:	81bffe04 	addi	r6,r16,-8
  8018c0:	3884703a 	and	r2,r7,r2
  8018c4:	21345104 	addi	r4,r4,-11964
  8018c8:	308b883a 	add	r5,r6,r2
  8018cc:	2a400117 	ldw	r9,4(r5)
  8018d0:	22000217 	ldw	r8,8(r4)
  8018d4:	00ffff04 	movi	r3,-4
  8018d8:	48c6703a 	and	r3,r9,r3
  8018dc:	2a005726 	beq	r5,r8,801a3c <_free_r+0x1ac>
  8018e0:	28c00115 	stw	r3,4(r5)
  8018e4:	39c0004c 	andi	r7,r7,1
  8018e8:	3800091e 	bne	r7,zero,801910 <_free_r+0x80>
  8018ec:	823ffe17 	ldw	r8,-8(r16)
  8018f0:	22400204 	addi	r9,r4,8
  8018f4:	320dc83a 	sub	r6,r6,r8
  8018f8:	31c00217 	ldw	r7,8(r6)
  8018fc:	1205883a 	add	r2,r2,r8
  801900:	3a406526 	beq	r7,r9,801a98 <_free_r+0x208>
  801904:	32000317 	ldw	r8,12(r6)
  801908:	3a000315 	stw	r8,12(r7)
  80190c:	41c00215 	stw	r7,8(r8)
  801910:	28cf883a 	add	r7,r5,r3
  801914:	39c00117 	ldw	r7,4(r7)
  801918:	39c0004c 	andi	r7,r7,1
  80191c:	38003a26 	beq	r7,zero,801a08 <_free_r+0x178>
  801920:	10c00054 	ori	r3,r2,1
  801924:	30c00115 	stw	r3,4(r6)
  801928:	3087883a 	add	r3,r6,r2
  80192c:	18800015 	stw	r2,0(r3)
  801930:	00c07fc4 	movi	r3,511
  801934:	18801936 	bltu	r3,r2,80199c <_free_r+0x10c>
  801938:	1004d0fa 	srli	r2,r2,3
  80193c:	01c00044 	movi	r7,1
  801940:	21400117 	ldw	r5,4(r4)
  801944:	10c00044 	addi	r3,r2,1
  801948:	18c7883a 	add	r3,r3,r3
  80194c:	1005d0ba 	srai	r2,r2,2
  801950:	18c7883a 	add	r3,r3,r3
  801954:	18c7883a 	add	r3,r3,r3
  801958:	1907883a 	add	r3,r3,r4
  80195c:	3884983a 	sll	r2,r7,r2
  801960:	19c00017 	ldw	r7,0(r3)
  801964:	1a3ffe04 	addi	r8,r3,-8
  801968:	1144b03a 	or	r2,r2,r5
  80196c:	32000315 	stw	r8,12(r6)
  801970:	31c00215 	stw	r7,8(r6)
  801974:	20800115 	stw	r2,4(r4)
  801978:	19800015 	stw	r6,0(r3)
  80197c:	39800315 	stw	r6,12(r7)
  801980:	8809883a 	mov	r4,r17
  801984:	dfc00217 	ldw	ra,8(sp)
  801988:	dc400117 	ldw	r17,4(sp)
  80198c:	dc000017 	ldw	r16,0(sp)
  801990:	dec00304 	addi	sp,sp,12
  801994:	08187701 	jmpi	818770 <__malloc_unlock>
  801998:	f800283a 	ret
  80199c:	100ad27a 	srli	r5,r2,9
  8019a0:	00c00104 	movi	r3,4
  8019a4:	19404a36 	bltu	r3,r5,801ad0 <_free_r+0x240>
  8019a8:	100ad1ba 	srli	r5,r2,6
  8019ac:	28c00e44 	addi	r3,r5,57
  8019b0:	18c7883a 	add	r3,r3,r3
  8019b4:	29400e04 	addi	r5,r5,56
  8019b8:	18c7883a 	add	r3,r3,r3
  8019bc:	18c7883a 	add	r3,r3,r3
  8019c0:	1909883a 	add	r4,r3,r4
  8019c4:	20c00017 	ldw	r3,0(r4)
  8019c8:	01c020b4 	movhi	r7,130
  8019cc:	213ffe04 	addi	r4,r4,-8
  8019d0:	39f45104 	addi	r7,r7,-11964
  8019d4:	20c04426 	beq	r4,r3,801ae8 <_free_r+0x258>
  8019d8:	01ffff04 	movi	r7,-4
  8019dc:	19400117 	ldw	r5,4(r3)
  8019e0:	29ca703a 	and	r5,r5,r7
  8019e4:	1140022e 	bgeu	r2,r5,8019f0 <_free_r+0x160>
  8019e8:	18c00217 	ldw	r3,8(r3)
  8019ec:	20fffb1e 	bne	r4,r3,8019dc <__alt_data_end+0xff8019dc>
  8019f0:	19000317 	ldw	r4,12(r3)
  8019f4:	31000315 	stw	r4,12(r6)
  8019f8:	30c00215 	stw	r3,8(r6)
  8019fc:	21800215 	stw	r6,8(r4)
  801a00:	19800315 	stw	r6,12(r3)
  801a04:	003fde06 	br	801980 <__alt_data_end+0xff801980>
  801a08:	29c00217 	ldw	r7,8(r5)
  801a0c:	10c5883a 	add	r2,r2,r3
  801a10:	00c020b4 	movhi	r3,130
  801a14:	18f45304 	addi	r3,r3,-11956
  801a18:	38c03b26 	beq	r7,r3,801b08 <_free_r+0x278>
  801a1c:	2a000317 	ldw	r8,12(r5)
  801a20:	11400054 	ori	r5,r2,1
  801a24:	3087883a 	add	r3,r6,r2
  801a28:	3a000315 	stw	r8,12(r7)
  801a2c:	41c00215 	stw	r7,8(r8)
  801a30:	31400115 	stw	r5,4(r6)
  801a34:	18800015 	stw	r2,0(r3)
  801a38:	003fbd06 	br	801930 <__alt_data_end+0xff801930>
  801a3c:	39c0004c 	andi	r7,r7,1
  801a40:	10c5883a 	add	r2,r2,r3
  801a44:	3800071e 	bne	r7,zero,801a64 <_free_r+0x1d4>
  801a48:	81fffe17 	ldw	r7,-8(r16)
  801a4c:	31cdc83a 	sub	r6,r6,r7
  801a50:	30c00317 	ldw	r3,12(r6)
  801a54:	31400217 	ldw	r5,8(r6)
  801a58:	11c5883a 	add	r2,r2,r7
  801a5c:	28c00315 	stw	r3,12(r5)
  801a60:	19400215 	stw	r5,8(r3)
  801a64:	10c00054 	ori	r3,r2,1
  801a68:	30c00115 	stw	r3,4(r6)
  801a6c:	00c020b4 	movhi	r3,130
  801a70:	18fa8704 	addi	r3,r3,-5604
  801a74:	18c00017 	ldw	r3,0(r3)
  801a78:	21800215 	stw	r6,8(r4)
  801a7c:	10ffc036 	bltu	r2,r3,801980 <__alt_data_end+0xff801980>
  801a80:	008020b4 	movhi	r2,130
  801a84:	1081f304 	addi	r2,r2,1996
  801a88:	11400017 	ldw	r5,0(r2)
  801a8c:	8809883a 	mov	r4,r17
  801a90:	080176c0 	call	80176c <_malloc_trim_r>
  801a94:	003fba06 	br	801980 <__alt_data_end+0xff801980>
  801a98:	28c9883a 	add	r4,r5,r3
  801a9c:	21000117 	ldw	r4,4(r4)
  801aa0:	2100004c 	andi	r4,r4,1
  801aa4:	2000391e 	bne	r4,zero,801b8c <_free_r+0x2fc>
  801aa8:	29c00217 	ldw	r7,8(r5)
  801aac:	29000317 	ldw	r4,12(r5)
  801ab0:	1885883a 	add	r2,r3,r2
  801ab4:	10c00054 	ori	r3,r2,1
  801ab8:	39000315 	stw	r4,12(r7)
  801abc:	21c00215 	stw	r7,8(r4)
  801ac0:	30c00115 	stw	r3,4(r6)
  801ac4:	308d883a 	add	r6,r6,r2
  801ac8:	30800015 	stw	r2,0(r6)
  801acc:	003fac06 	br	801980 <__alt_data_end+0xff801980>
  801ad0:	00c00504 	movi	r3,20
  801ad4:	19401536 	bltu	r3,r5,801b2c <_free_r+0x29c>
  801ad8:	28c01704 	addi	r3,r5,92
  801adc:	18c7883a 	add	r3,r3,r3
  801ae0:	294016c4 	addi	r5,r5,91
  801ae4:	003fb406 	br	8019b8 <__alt_data_end+0xff8019b8>
  801ae8:	280bd0ba 	srai	r5,r5,2
  801aec:	00c00044 	movi	r3,1
  801af0:	38800117 	ldw	r2,4(r7)
  801af4:	194a983a 	sll	r5,r3,r5
  801af8:	2007883a 	mov	r3,r4
  801afc:	2884b03a 	or	r2,r5,r2
  801b00:	38800115 	stw	r2,4(r7)
  801b04:	003fbb06 	br	8019f4 <__alt_data_end+0xff8019f4>
  801b08:	21800515 	stw	r6,20(r4)
  801b0c:	21800415 	stw	r6,16(r4)
  801b10:	10c00054 	ori	r3,r2,1
  801b14:	31c00315 	stw	r7,12(r6)
  801b18:	31c00215 	stw	r7,8(r6)
  801b1c:	30c00115 	stw	r3,4(r6)
  801b20:	308d883a 	add	r6,r6,r2
  801b24:	30800015 	stw	r2,0(r6)
  801b28:	003f9506 	br	801980 <__alt_data_end+0xff801980>
  801b2c:	00c01504 	movi	r3,84
  801b30:	19400536 	bltu	r3,r5,801b48 <_free_r+0x2b8>
  801b34:	100ad33a 	srli	r5,r2,12
  801b38:	28c01bc4 	addi	r3,r5,111
  801b3c:	18c7883a 	add	r3,r3,r3
  801b40:	29401b84 	addi	r5,r5,110
  801b44:	003f9c06 	br	8019b8 <__alt_data_end+0xff8019b8>
  801b48:	00c05504 	movi	r3,340
  801b4c:	19400536 	bltu	r3,r5,801b64 <_free_r+0x2d4>
  801b50:	100ad3fa 	srli	r5,r2,15
  801b54:	28c01e04 	addi	r3,r5,120
  801b58:	18c7883a 	add	r3,r3,r3
  801b5c:	29401dc4 	addi	r5,r5,119
  801b60:	003f9506 	br	8019b8 <__alt_data_end+0xff8019b8>
  801b64:	00c15504 	movi	r3,1364
  801b68:	19400536 	bltu	r3,r5,801b80 <_free_r+0x2f0>
  801b6c:	100ad4ba 	srli	r5,r2,18
  801b70:	28c01f44 	addi	r3,r5,125
  801b74:	18c7883a 	add	r3,r3,r3
  801b78:	29401f04 	addi	r5,r5,124
  801b7c:	003f8e06 	br	8019b8 <__alt_data_end+0xff8019b8>
  801b80:	00c03f84 	movi	r3,254
  801b84:	01401f84 	movi	r5,126
  801b88:	003f8b06 	br	8019b8 <__alt_data_end+0xff8019b8>
  801b8c:	10c00054 	ori	r3,r2,1
  801b90:	30c00115 	stw	r3,4(r6)
  801b94:	308d883a 	add	r6,r6,r2
  801b98:	30800015 	stw	r2,0(r6)
  801b9c:	003f7806 	br	801980 <__alt_data_end+0xff801980>

00801ba0 <_fseek_r>:
  801ba0:	0801bc01 	jmpi	801bc0 <_fseeko_r>

00801ba4 <fseek>:
  801ba4:	008020b4 	movhi	r2,130
  801ba8:	10ba8504 	addi	r2,r2,-5612
  801bac:	300f883a 	mov	r7,r6
  801bb0:	280d883a 	mov	r6,r5
  801bb4:	200b883a 	mov	r5,r4
  801bb8:	11000017 	ldw	r4,0(r2)
  801bbc:	0801bc01 	jmpi	801bc0 <_fseeko_r>

00801bc0 <_fseeko_r>:
  801bc0:	deffe804 	addi	sp,sp,-96
  801bc4:	dd401415 	stw	r21,80(sp)
  801bc8:	dc801115 	stw	r18,68(sp)
  801bcc:	dc401015 	stw	r17,64(sp)
  801bd0:	dc000f15 	stw	r16,60(sp)
  801bd4:	dfc01715 	stw	ra,92(sp)
  801bd8:	ddc01615 	stw	r23,88(sp)
  801bdc:	dd801515 	stw	r22,84(sp)
  801be0:	dd001315 	stw	r20,76(sp)
  801be4:	dcc01215 	stw	r19,72(sp)
  801be8:	2023883a 	mov	r17,r4
  801bec:	2821883a 	mov	r16,r5
  801bf0:	302b883a 	mov	r21,r6
  801bf4:	3825883a 	mov	r18,r7
  801bf8:	20000226 	beq	r4,zero,801c04 <_fseeko_r+0x44>
  801bfc:	20800e17 	ldw	r2,56(r4)
  801c00:	10005a26 	beq	r2,zero,801d6c <_fseeko_r+0x1ac>
  801c04:	8080030b 	ldhu	r2,12(r16)
  801c08:	00c04204 	movi	r3,264
  801c0c:	1080420c 	andi	r2,r2,264
  801c10:	10c05b26 	beq	r2,r3,801d80 <_fseeko_r+0x1c0>
  801c14:	85000a17 	ldw	r20,40(r16)
  801c18:	a000f626 	beq	r20,zero,801ff4 <_fseeko_r+0x434>
  801c1c:	00800044 	movi	r2,1
  801c20:	90803e26 	beq	r18,r2,801d1c <_fseeko_r+0x15c>
  801c24:	00800084 	movi	r2,2
  801c28:	90801026 	beq	r18,r2,801c6c <_fseeko_r+0xac>
  801c2c:	90000f26 	beq	r18,zero,801c6c <_fseeko_r+0xac>
  801c30:	00800584 	movi	r2,22
  801c34:	88800015 	stw	r2,0(r17)
  801c38:	04ffffc4 	movi	r19,-1
  801c3c:	9805883a 	mov	r2,r19
  801c40:	dfc01717 	ldw	ra,92(sp)
  801c44:	ddc01617 	ldw	r23,88(sp)
  801c48:	dd801517 	ldw	r22,84(sp)
  801c4c:	dd401417 	ldw	r21,80(sp)
  801c50:	dd001317 	ldw	r20,76(sp)
  801c54:	dcc01217 	ldw	r19,72(sp)
  801c58:	dc801117 	ldw	r18,68(sp)
  801c5c:	dc401017 	ldw	r17,64(sp)
  801c60:	dc000f17 	ldw	r16,60(sp)
  801c64:	dec01804 	addi	sp,sp,96
  801c68:	f800283a 	ret
  801c6c:	80800417 	ldw	r2,16(r16)
  801c70:	002f883a 	mov	r23,zero
  801c74:	0027883a 	mov	r19,zero
  801c78:	1000cb26 	beq	r2,zero,801fa8 <_fseeko_r+0x3e8>
  801c7c:	8080030b 	ldhu	r2,12(r16)
  801c80:	10c2068c 	andi	r3,r2,2074
  801c84:	1800071e 	bne	r3,zero,801ca4 <_fseeko_r+0xe4>
  801c88:	10c1000c 	andi	r3,r2,1024
  801c8c:	1800451e 	bne	r3,zero,801da4 <_fseeko_r+0x1e4>
  801c90:	00c02034 	movhi	r3,128
  801c94:	18cd5104 	addi	r3,r3,13636
  801c98:	a0c0b726 	beq	r20,r3,801f78 <_fseeko_r+0x3b8>
  801c9c:	10820014 	ori	r2,r2,2048
  801ca0:	8080030d 	sth	r2,12(r16)
  801ca4:	800b883a 	mov	r5,r16
  801ca8:	8809883a 	mov	r4,r17
  801cac:	08011e80 	call	8011e8 <_fflush_r>
  801cb0:	1027883a 	mov	r19,r2
  801cb4:	103fe01e 	bne	r2,zero,801c38 <__alt_data_end+0xff801c38>
  801cb8:	81400717 	ldw	r5,28(r16)
  801cbc:	900f883a 	mov	r7,r18
  801cc0:	a80d883a 	mov	r6,r21
  801cc4:	8809883a 	mov	r4,r17
  801cc8:	a03ee83a 	callr	r20
  801ccc:	00ffffc4 	movi	r3,-1
  801cd0:	10ffd926 	beq	r2,r3,801c38 <__alt_data_end+0xff801c38>
  801cd4:	81400c17 	ldw	r5,48(r16)
  801cd8:	28000526 	beq	r5,zero,801cf0 <_fseeko_r+0x130>
  801cdc:	80801004 	addi	r2,r16,64
  801ce0:	28800226 	beq	r5,r2,801cec <_fseeko_r+0x12c>
  801ce4:	8809883a 	mov	r4,r17
  801ce8:	08018900 	call	801890 <_free_r>
  801cec:	80000c15 	stw	zero,48(r16)
  801cf0:	8080030b 	ldhu	r2,12(r16)
  801cf4:	80c00417 	ldw	r3,16(r16)
  801cf8:	80000115 	stw	zero,4(r16)
  801cfc:	10bdf7cc 	andi	r2,r2,63455
  801d00:	80c00015 	stw	r3,0(r16)
  801d04:	8080030d 	sth	r2,12(r16)
  801d08:	01800204 	movi	r6,8
  801d0c:	000b883a 	mov	r5,zero
  801d10:	81001704 	addi	r4,r16,92
  801d14:	0802dc40 	call	802dc4 <memset>
  801d18:	003fc806 	br	801c3c <__alt_data_end+0xff801c3c>
  801d1c:	800b883a 	mov	r5,r16
  801d20:	8809883a 	mov	r4,r17
  801d24:	08011e80 	call	8011e8 <_fflush_r>
  801d28:	8080030b 	ldhu	r2,12(r16)
  801d2c:	10c4000c 	andi	r3,r2,4096
  801d30:	18008726 	beq	r3,zero,801f50 <_fseeko_r+0x390>
  801d34:	84c01417 	ldw	r19,80(r16)
  801d38:	10c0010c 	andi	r3,r2,4
  801d3c:	1800431e 	bne	r3,zero,801e4c <_fseeko_r+0x28c>
  801d40:	1080020c 	andi	r2,r2,8
  801d44:	10008026 	beq	r2,zero,801f48 <_fseeko_r+0x388>
  801d48:	80c00017 	ldw	r3,0(r16)
  801d4c:	80800417 	ldw	r2,16(r16)
  801d50:	18000226 	beq	r3,zero,801d5c <_fseeko_r+0x19c>
  801d54:	1887c83a 	sub	r3,r3,r2
  801d58:	98e7883a 	add	r19,r19,r3
  801d5c:	aceb883a 	add	r21,r21,r19
  801d60:	05c00044 	movi	r23,1
  801d64:	0025883a 	mov	r18,zero
  801d68:	003fc306 	br	801c78 <__alt_data_end+0xff801c78>
  801d6c:	08015c40 	call	8015c4 <__sinit>
  801d70:	8080030b 	ldhu	r2,12(r16)
  801d74:	00c04204 	movi	r3,264
  801d78:	1080420c 	andi	r2,r2,264
  801d7c:	10ffa51e 	bne	r2,r3,801c14 <__alt_data_end+0xff801c14>
  801d80:	800b883a 	mov	r5,r16
  801d84:	8809883a 	mov	r4,r17
  801d88:	08011e80 	call	8011e8 <_fflush_r>
  801d8c:	003fa106 	br	801c14 <__alt_data_end+0xff801c14>
  801d90:	8080030b 	ldhu	r2,12(r16)
  801d94:	00c10004 	movi	r3,1024
  801d98:	80c01315 	stw	r3,76(r16)
  801d9c:	10c4b03a 	or	r2,r2,r3
  801da0:	8080030d 	sth	r2,12(r16)
  801da4:	9000311e 	bne	r18,zero,801e6c <_fseeko_r+0x2ac>
  801da8:	a82d883a 	mov	r22,r21
  801dac:	b800371e 	bne	r23,zero,801e8c <_fseeko_r+0x2cc>
  801db0:	8080030b 	ldhu	r2,12(r16)
  801db4:	1084000c 	andi	r2,r2,4096
  801db8:	10007f26 	beq	r2,zero,801fb8 <_fseeko_r+0x3f8>
  801dbc:	80801417 	ldw	r2,80(r16)
  801dc0:	81800117 	ldw	r6,4(r16)
  801dc4:	81400c17 	ldw	r5,48(r16)
  801dc8:	11a7c83a 	sub	r19,r2,r6
  801dcc:	28008226 	beq	r5,zero,801fd8 <_fseeko_r+0x418>
  801dd0:	81c00f17 	ldw	r7,60(r16)
  801dd4:	99e7c83a 	sub	r19,r19,r7
  801dd8:	81000e17 	ldw	r4,56(r16)
  801ddc:	80800417 	ldw	r2,16(r16)
  801de0:	99a7883a 	add	r19,r19,r6
  801de4:	2087c83a 	sub	r3,r4,r2
  801de8:	98e7c83a 	sub	r19,r19,r3
  801dec:	38c7883a 	add	r3,r7,r3
  801df0:	b4c02b16 	blt	r22,r19,801ea0 <_fseeko_r+0x2e0>
  801df4:	98c9883a 	add	r4,r19,r3
  801df8:	b100292e 	bgeu	r22,r4,801ea0 <_fseeko_r+0x2e0>
  801dfc:	b4e7c83a 	sub	r19,r22,r19
  801e00:	14c5883a 	add	r2,r2,r19
  801e04:	1ce7c83a 	sub	r19,r3,r19
  801e08:	80800015 	stw	r2,0(r16)
  801e0c:	84c00115 	stw	r19,4(r16)
  801e10:	28000526 	beq	r5,zero,801e28 <_fseeko_r+0x268>
  801e14:	80801004 	addi	r2,r16,64
  801e18:	28800226 	beq	r5,r2,801e24 <_fseeko_r+0x264>
  801e1c:	8809883a 	mov	r4,r17
  801e20:	08018900 	call	801890 <_free_r>
  801e24:	80000c15 	stw	zero,48(r16)
  801e28:	8080030b 	ldhu	r2,12(r16)
  801e2c:	01800204 	movi	r6,8
  801e30:	000b883a 	mov	r5,zero
  801e34:	10bff7cc 	andi	r2,r2,65503
  801e38:	8080030d 	sth	r2,12(r16)
  801e3c:	81001704 	addi	r4,r16,92
  801e40:	0802dc40 	call	802dc4 <memset>
  801e44:	0027883a 	mov	r19,zero
  801e48:	003f7c06 	br	801c3c <__alt_data_end+0xff801c3c>
  801e4c:	80c00117 	ldw	r3,4(r16)
  801e50:	80800c17 	ldw	r2,48(r16)
  801e54:	98e7c83a 	sub	r19,r19,r3
  801e58:	10003b26 	beq	r2,zero,801f48 <_fseeko_r+0x388>
  801e5c:	80c00f17 	ldw	r3,60(r16)
  801e60:	80800417 	ldw	r2,16(r16)
  801e64:	98e7c83a 	sub	r19,r19,r3
  801e68:	003fbc06 	br	801d5c <__alt_data_end+0xff801d5c>
  801e6c:	8140038f 	ldh	r5,14(r16)
  801e70:	d80d883a 	mov	r6,sp
  801e74:	8809883a 	mov	r4,r17
  801e78:	08020200 	call	802020 <_fstat_r>
  801e7c:	103f891e 	bne	r2,zero,801ca4 <__alt_data_end+0xff801ca4>
  801e80:	dd800417 	ldw	r22,16(sp)
  801e84:	adad883a 	add	r22,r21,r22
  801e88:	b83fc926 	beq	r23,zero,801db0 <__alt_data_end+0xff801db0>
  801e8c:	81400c17 	ldw	r5,48(r16)
  801e90:	81800117 	ldw	r6,4(r16)
  801e94:	28005026 	beq	r5,zero,801fd8 <_fseeko_r+0x418>
  801e98:	81c00f17 	ldw	r7,60(r16)
  801e9c:	003fce06 	br	801dd8 <__alt_data_end+0xff801dd8>
  801ea0:	84c01317 	ldw	r19,76(r16)
  801ea4:	81400717 	ldw	r5,28(r16)
  801ea8:	000f883a 	mov	r7,zero
  801eac:	04e7c83a 	sub	r19,zero,r19
  801eb0:	9da6703a 	and	r19,r19,r22
  801eb4:	980d883a 	mov	r6,r19
  801eb8:	8809883a 	mov	r4,r17
  801ebc:	a03ee83a 	callr	r20
  801ec0:	00ffffc4 	movi	r3,-1
  801ec4:	10ff7726 	beq	r2,r3,801ca4 <__alt_data_end+0xff801ca4>
  801ec8:	80800417 	ldw	r2,16(r16)
  801ecc:	81400c17 	ldw	r5,48(r16)
  801ed0:	80000115 	stw	zero,4(r16)
  801ed4:	80800015 	stw	r2,0(r16)
  801ed8:	28000526 	beq	r5,zero,801ef0 <_fseeko_r+0x330>
  801edc:	80801004 	addi	r2,r16,64
  801ee0:	28800226 	beq	r5,r2,801eec <_fseeko_r+0x32c>
  801ee4:	8809883a 	mov	r4,r17
  801ee8:	08018900 	call	801890 <_free_r>
  801eec:	80000c15 	stw	zero,48(r16)
  801ef0:	8080030b 	ldhu	r2,12(r16)
  801ef4:	b4e7c83a 	sub	r19,r22,r19
  801ef8:	10bff7cc 	andi	r2,r2,65503
  801efc:	8080030d 	sth	r2,12(r16)
  801f00:	98000b26 	beq	r19,zero,801f30 <_fseeko_r+0x370>
  801f04:	800b883a 	mov	r5,r16
  801f08:	8809883a 	mov	r4,r17
  801f0c:	08030c80 	call	8030c8 <__srefill_r>
  801f10:	103f641e 	bne	r2,zero,801ca4 <__alt_data_end+0xff801ca4>
  801f14:	80800117 	ldw	r2,4(r16)
  801f18:	14ff6236 	bltu	r2,r19,801ca4 <__alt_data_end+0xff801ca4>
  801f1c:	80c00017 	ldw	r3,0(r16)
  801f20:	14c5c83a 	sub	r2,r2,r19
  801f24:	80800115 	stw	r2,4(r16)
  801f28:	1ce7883a 	add	r19,r3,r19
  801f2c:	84c00015 	stw	r19,0(r16)
  801f30:	01800204 	movi	r6,8
  801f34:	000b883a 	mov	r5,zero
  801f38:	81001704 	addi	r4,r16,92
  801f3c:	0802dc40 	call	802dc4 <memset>
  801f40:	0027883a 	mov	r19,zero
  801f44:	003f3d06 	br	801c3c <__alt_data_end+0xff801c3c>
  801f48:	80800417 	ldw	r2,16(r16)
  801f4c:	003f8306 	br	801d5c <__alt_data_end+0xff801d5c>
  801f50:	81400717 	ldw	r5,28(r16)
  801f54:	900f883a 	mov	r7,r18
  801f58:	000d883a 	mov	r6,zero
  801f5c:	8809883a 	mov	r4,r17
  801f60:	a03ee83a 	callr	r20
  801f64:	1027883a 	mov	r19,r2
  801f68:	00bfffc4 	movi	r2,-1
  801f6c:	98bf3226 	beq	r19,r2,801c38 <__alt_data_end+0xff801c38>
  801f70:	8080030b 	ldhu	r2,12(r16)
  801f74:	003f7006 	br	801d38 <__alt_data_end+0xff801d38>
  801f78:	8140038f 	ldh	r5,14(r16)
  801f7c:	283f4716 	blt	r5,zero,801c9c <__alt_data_end+0xff801c9c>
  801f80:	d80d883a 	mov	r6,sp
  801f84:	8809883a 	mov	r4,r17
  801f88:	08020200 	call	802020 <_fstat_r>
  801f8c:	1000041e 	bne	r2,zero,801fa0 <_fseeko_r+0x3e0>
  801f90:	d8800117 	ldw	r2,4(sp)
  801f94:	00e00014 	movui	r3,32768
  801f98:	10bc000c 	andi	r2,r2,61440
  801f9c:	10ff7c26 	beq	r2,r3,801d90 <__alt_data_end+0xff801d90>
  801fa0:	8080030b 	ldhu	r2,12(r16)
  801fa4:	003f3d06 	br	801c9c <__alt_data_end+0xff801c9c>
  801fa8:	800b883a 	mov	r5,r16
  801fac:	8809883a 	mov	r4,r17
  801fb0:	08023fc0 	call	8023fc <__smakebuf_r>
  801fb4:	003f3106 	br	801c7c <__alt_data_end+0xff801c7c>
  801fb8:	81400717 	ldw	r5,28(r16)
  801fbc:	01c00044 	movi	r7,1
  801fc0:	000d883a 	mov	r6,zero
  801fc4:	8809883a 	mov	r4,r17
  801fc8:	a03ee83a 	callr	r20
  801fcc:	00ffffc4 	movi	r3,-1
  801fd0:	10ff7b1e 	bne	r2,r3,801dc0 <__alt_data_end+0xff801dc0>
  801fd4:	003f3306 	br	801ca4 <__alt_data_end+0xff801ca4>
  801fd8:	80c00017 	ldw	r3,0(r16)
  801fdc:	80800417 	ldw	r2,16(r16)
  801fe0:	000b883a 	mov	r5,zero
  801fe4:	1887c83a 	sub	r3,r3,r2
  801fe8:	98e7c83a 	sub	r19,r19,r3
  801fec:	30c7883a 	add	r3,r6,r3
  801ff0:	003f7f06 	br	801df0 <__alt_data_end+0xff801df0>
  801ff4:	00800744 	movi	r2,29
  801ff8:	88800015 	stw	r2,0(r17)
  801ffc:	04ffffc4 	movi	r19,-1
  802000:	003f0e06 	br	801c3c <__alt_data_end+0xff801c3c>

00802004 <fseeko>:
  802004:	008020b4 	movhi	r2,130
  802008:	10ba8504 	addi	r2,r2,-5612
  80200c:	300f883a 	mov	r7,r6
  802010:	280d883a 	mov	r6,r5
  802014:	200b883a 	mov	r5,r4
  802018:	11000017 	ldw	r4,0(r2)
  80201c:	0801bc01 	jmpi	801bc0 <_fseeko_r>

00802020 <_fstat_r>:
  802020:	defffd04 	addi	sp,sp,-12
  802024:	2805883a 	mov	r2,r5
  802028:	dc000015 	stw	r16,0(sp)
  80202c:	040020b4 	movhi	r16,130
  802030:	dc400115 	stw	r17,4(sp)
  802034:	8401f004 	addi	r16,r16,1984
  802038:	2023883a 	mov	r17,r4
  80203c:	300b883a 	mov	r5,r6
  802040:	1009883a 	mov	r4,r2
  802044:	dfc00215 	stw	ra,8(sp)
  802048:	80000015 	stw	zero,0(r16)
  80204c:	08181c40 	call	8181c4 <fstat>
  802050:	00ffffc4 	movi	r3,-1
  802054:	10c00526 	beq	r2,r3,80206c <_fstat_r+0x4c>
  802058:	dfc00217 	ldw	ra,8(sp)
  80205c:	dc400117 	ldw	r17,4(sp)
  802060:	dc000017 	ldw	r16,0(sp)
  802064:	dec00304 	addi	sp,sp,12
  802068:	f800283a 	ret
  80206c:	80c00017 	ldw	r3,0(r16)
  802070:	183ff926 	beq	r3,zero,802058 <__alt_data_end+0xff802058>
  802074:	88c00015 	stw	r3,0(r17)
  802078:	003ff706 	br	802058 <__alt_data_end+0xff802058>

0080207c <_fwalk>:
  80207c:	defff704 	addi	sp,sp,-36
  802080:	dd000415 	stw	r20,16(sp)
  802084:	dfc00815 	stw	ra,32(sp)
  802088:	ddc00715 	stw	r23,28(sp)
  80208c:	dd800615 	stw	r22,24(sp)
  802090:	dd400515 	stw	r21,20(sp)
  802094:	dcc00315 	stw	r19,12(sp)
  802098:	dc800215 	stw	r18,8(sp)
  80209c:	dc400115 	stw	r17,4(sp)
  8020a0:	dc000015 	stw	r16,0(sp)
  8020a4:	2500b804 	addi	r20,r4,736
  8020a8:	a0002326 	beq	r20,zero,802138 <_fwalk+0xbc>
  8020ac:	282b883a 	mov	r21,r5
  8020b0:	002f883a 	mov	r23,zero
  8020b4:	05800044 	movi	r22,1
  8020b8:	04ffffc4 	movi	r19,-1
  8020bc:	a4400117 	ldw	r17,4(r20)
  8020c0:	a4800217 	ldw	r18,8(r20)
  8020c4:	8c7fffc4 	addi	r17,r17,-1
  8020c8:	88000d16 	blt	r17,zero,802100 <_fwalk+0x84>
  8020cc:	94000304 	addi	r16,r18,12
  8020d0:	94800384 	addi	r18,r18,14
  8020d4:	8080000b 	ldhu	r2,0(r16)
  8020d8:	8c7fffc4 	addi	r17,r17,-1
  8020dc:	813ffd04 	addi	r4,r16,-12
  8020e0:	b080042e 	bgeu	r22,r2,8020f4 <_fwalk+0x78>
  8020e4:	9080000f 	ldh	r2,0(r18)
  8020e8:	14c00226 	beq	r2,r19,8020f4 <_fwalk+0x78>
  8020ec:	a83ee83a 	callr	r21
  8020f0:	b8aeb03a 	or	r23,r23,r2
  8020f4:	84001a04 	addi	r16,r16,104
  8020f8:	94801a04 	addi	r18,r18,104
  8020fc:	8cfff51e 	bne	r17,r19,8020d4 <__alt_data_end+0xff8020d4>
  802100:	a5000017 	ldw	r20,0(r20)
  802104:	a03fed1e 	bne	r20,zero,8020bc <__alt_data_end+0xff8020bc>
  802108:	b805883a 	mov	r2,r23
  80210c:	dfc00817 	ldw	ra,32(sp)
  802110:	ddc00717 	ldw	r23,28(sp)
  802114:	dd800617 	ldw	r22,24(sp)
  802118:	dd400517 	ldw	r21,20(sp)
  80211c:	dd000417 	ldw	r20,16(sp)
  802120:	dcc00317 	ldw	r19,12(sp)
  802124:	dc800217 	ldw	r18,8(sp)
  802128:	dc400117 	ldw	r17,4(sp)
  80212c:	dc000017 	ldw	r16,0(sp)
  802130:	dec00904 	addi	sp,sp,36
  802134:	f800283a 	ret
  802138:	002f883a 	mov	r23,zero
  80213c:	003ff206 	br	802108 <__alt_data_end+0xff802108>

00802140 <_fwalk_reent>:
  802140:	defff704 	addi	sp,sp,-36
  802144:	dd000415 	stw	r20,16(sp)
  802148:	dfc00815 	stw	ra,32(sp)
  80214c:	ddc00715 	stw	r23,28(sp)
  802150:	dd800615 	stw	r22,24(sp)
  802154:	dd400515 	stw	r21,20(sp)
  802158:	dcc00315 	stw	r19,12(sp)
  80215c:	dc800215 	stw	r18,8(sp)
  802160:	dc400115 	stw	r17,4(sp)
  802164:	dc000015 	stw	r16,0(sp)
  802168:	2500b804 	addi	r20,r4,736
  80216c:	a0002326 	beq	r20,zero,8021fc <_fwalk_reent+0xbc>
  802170:	282b883a 	mov	r21,r5
  802174:	2027883a 	mov	r19,r4
  802178:	002f883a 	mov	r23,zero
  80217c:	05800044 	movi	r22,1
  802180:	04bfffc4 	movi	r18,-1
  802184:	a4400117 	ldw	r17,4(r20)
  802188:	a4000217 	ldw	r16,8(r20)
  80218c:	8c7fffc4 	addi	r17,r17,-1
  802190:	88000c16 	blt	r17,zero,8021c4 <_fwalk_reent+0x84>
  802194:	84000304 	addi	r16,r16,12
  802198:	8080000b 	ldhu	r2,0(r16)
  80219c:	8c7fffc4 	addi	r17,r17,-1
  8021a0:	817ffd04 	addi	r5,r16,-12
  8021a4:	b080052e 	bgeu	r22,r2,8021bc <_fwalk_reent+0x7c>
  8021a8:	8080008f 	ldh	r2,2(r16)
  8021ac:	9809883a 	mov	r4,r19
  8021b0:	14800226 	beq	r2,r18,8021bc <_fwalk_reent+0x7c>
  8021b4:	a83ee83a 	callr	r21
  8021b8:	b8aeb03a 	or	r23,r23,r2
  8021bc:	84001a04 	addi	r16,r16,104
  8021c0:	8cbff51e 	bne	r17,r18,802198 <__alt_data_end+0xff802198>
  8021c4:	a5000017 	ldw	r20,0(r20)
  8021c8:	a03fee1e 	bne	r20,zero,802184 <__alt_data_end+0xff802184>
  8021cc:	b805883a 	mov	r2,r23
  8021d0:	dfc00817 	ldw	ra,32(sp)
  8021d4:	ddc00717 	ldw	r23,28(sp)
  8021d8:	dd800617 	ldw	r22,24(sp)
  8021dc:	dd400517 	ldw	r21,20(sp)
  8021e0:	dd000417 	ldw	r20,16(sp)
  8021e4:	dcc00317 	ldw	r19,12(sp)
  8021e8:	dc800217 	ldw	r18,8(sp)
  8021ec:	dc400117 	ldw	r17,4(sp)
  8021f0:	dc000017 	ldw	r16,0(sp)
  8021f4:	dec00904 	addi	sp,sp,36
  8021f8:	f800283a 	ret
  8021fc:	002f883a 	mov	r23,zero
  802200:	003ff206 	br	8021cc <__alt_data_end+0xff8021cc>

00802204 <_fwrite_r>:
  802204:	defff504 	addi	sp,sp,-44
  802208:	dc800815 	stw	r18,32(sp)
  80220c:	39a5383a 	mul	r18,r7,r6
  802210:	d8800304 	addi	r2,sp,12
  802214:	d8800015 	stw	r2,0(sp)
  802218:	00800044 	movi	r2,1
  80221c:	dcc00915 	stw	r19,36(sp)
  802220:	dc400715 	stw	r17,28(sp)
  802224:	dc000615 	stw	r16,24(sp)
  802228:	d9400315 	stw	r5,12(sp)
  80222c:	dfc00a15 	stw	ra,40(sp)
  802230:	dc800415 	stw	r18,16(sp)
  802234:	dc800215 	stw	r18,8(sp)
  802238:	d8800115 	stw	r2,4(sp)
  80223c:	3027883a 	mov	r19,r6
  802240:	3821883a 	mov	r16,r7
  802244:	2023883a 	mov	r17,r4
  802248:	d9400b17 	ldw	r5,44(sp)
  80224c:	20000226 	beq	r4,zero,802258 <_fwrite_r+0x54>
  802250:	20800e17 	ldw	r2,56(r4)
  802254:	10001a26 	beq	r2,zero,8022c0 <_fwrite_r+0xbc>
  802258:	2880030b 	ldhu	r2,12(r5)
  80225c:	10c8000c 	andi	r3,r2,8192
  802260:	1800061e 	bne	r3,zero,80227c <_fwrite_r+0x78>
  802264:	29001917 	ldw	r4,100(r5)
  802268:	00f7ffc4 	movi	r3,-8193
  80226c:	10880014 	ori	r2,r2,8192
  802270:	20c6703a 	and	r3,r4,r3
  802274:	2880030d 	sth	r2,12(r5)
  802278:	28c01915 	stw	r3,100(r5)
  80227c:	d80d883a 	mov	r6,sp
  802280:	8809883a 	mov	r4,r17
  802284:	0808c080 	call	808c08 <__sfvwrite_r>
  802288:	10000b26 	beq	r2,zero,8022b8 <_fwrite_r+0xb4>
  80228c:	d9000217 	ldw	r4,8(sp)
  802290:	980b883a 	mov	r5,r19
  802294:	9109c83a 	sub	r4,r18,r4
  802298:	08155880 	call	815588 <__udivsi3>
  80229c:	dfc00a17 	ldw	ra,40(sp)
  8022a0:	dcc00917 	ldw	r19,36(sp)
  8022a4:	dc800817 	ldw	r18,32(sp)
  8022a8:	dc400717 	ldw	r17,28(sp)
  8022ac:	dc000617 	ldw	r16,24(sp)
  8022b0:	dec00b04 	addi	sp,sp,44
  8022b4:	f800283a 	ret
  8022b8:	8005883a 	mov	r2,r16
  8022bc:	003ff706 	br	80229c <__alt_data_end+0xff80229c>
  8022c0:	d9400515 	stw	r5,20(sp)
  8022c4:	08015c40 	call	8015c4 <__sinit>
  8022c8:	d9400517 	ldw	r5,20(sp)
  8022cc:	003fe206 	br	802258 <__alt_data_end+0xff802258>

008022d0 <fwrite>:
  8022d0:	defffe04 	addi	sp,sp,-8
  8022d4:	008020b4 	movhi	r2,130
  8022d8:	d9c00015 	stw	r7,0(sp)
  8022dc:	10ba8504 	addi	r2,r2,-5612
  8022e0:	300f883a 	mov	r7,r6
  8022e4:	280d883a 	mov	r6,r5
  8022e8:	200b883a 	mov	r5,r4
  8022ec:	11000017 	ldw	r4,0(r2)
  8022f0:	dfc00115 	stw	ra,4(sp)
  8022f4:	08022040 	call	802204 <_fwrite_r>
  8022f8:	dfc00117 	ldw	ra,4(sp)
  8022fc:	dec00204 	addi	sp,sp,8
  802300:	f800283a 	ret

00802304 <_getc_r>:
  802304:	defffd04 	addi	sp,sp,-12
  802308:	dc000115 	stw	r16,4(sp)
  80230c:	dfc00215 	stw	ra,8(sp)
  802310:	2021883a 	mov	r16,r4
  802314:	20000226 	beq	r4,zero,802320 <_getc_r+0x1c>
  802318:	20800e17 	ldw	r2,56(r4)
  80231c:	10000c26 	beq	r2,zero,802350 <_getc_r+0x4c>
  802320:	28800117 	ldw	r2,4(r5)
  802324:	10bfffc4 	addi	r2,r2,-1
  802328:	28800115 	stw	r2,4(r5)
  80232c:	10000c16 	blt	r2,zero,802360 <_getc_r+0x5c>
  802330:	28800017 	ldw	r2,0(r5)
  802334:	10c00044 	addi	r3,r2,1
  802338:	28c00015 	stw	r3,0(r5)
  80233c:	10800003 	ldbu	r2,0(r2)
  802340:	dfc00217 	ldw	ra,8(sp)
  802344:	dc000117 	ldw	r16,4(sp)
  802348:	dec00304 	addi	sp,sp,12
  80234c:	f800283a 	ret
  802350:	d9400015 	stw	r5,0(sp)
  802354:	08015c40 	call	8015c4 <__sinit>
  802358:	d9400017 	ldw	r5,0(sp)
  80235c:	003ff006 	br	802320 <__alt_data_end+0xff802320>
  802360:	8009883a 	mov	r4,r16
  802364:	dfc00217 	ldw	ra,8(sp)
  802368:	dc000117 	ldw	r16,4(sp)
  80236c:	dec00304 	addi	sp,sp,12
  802370:	080329c1 	jmpi	80329c <__srget_r>

00802374 <getc>:
  802374:	008020b4 	movhi	r2,130
  802378:	defffd04 	addi	sp,sp,-12
  80237c:	10ba8504 	addi	r2,r2,-5612
  802380:	dc400115 	stw	r17,4(sp)
  802384:	14400017 	ldw	r17,0(r2)
  802388:	dc000015 	stw	r16,0(sp)
  80238c:	dfc00215 	stw	ra,8(sp)
  802390:	2021883a 	mov	r16,r4
  802394:	88000226 	beq	r17,zero,8023a0 <getc+0x2c>
  802398:	88800e17 	ldw	r2,56(r17)
  80239c:	10000d26 	beq	r2,zero,8023d4 <getc+0x60>
  8023a0:	80800117 	ldw	r2,4(r16)
  8023a4:	10bfffc4 	addi	r2,r2,-1
  8023a8:	80800115 	stw	r2,4(r16)
  8023ac:	10000c16 	blt	r2,zero,8023e0 <getc+0x6c>
  8023b0:	80800017 	ldw	r2,0(r16)
  8023b4:	10c00044 	addi	r3,r2,1
  8023b8:	80c00015 	stw	r3,0(r16)
  8023bc:	10800003 	ldbu	r2,0(r2)
  8023c0:	dfc00217 	ldw	ra,8(sp)
  8023c4:	dc400117 	ldw	r17,4(sp)
  8023c8:	dc000017 	ldw	r16,0(sp)
  8023cc:	dec00304 	addi	sp,sp,12
  8023d0:	f800283a 	ret
  8023d4:	8809883a 	mov	r4,r17
  8023d8:	08015c40 	call	8015c4 <__sinit>
  8023dc:	003ff006 	br	8023a0 <__alt_data_end+0xff8023a0>
  8023e0:	800b883a 	mov	r5,r16
  8023e4:	8809883a 	mov	r4,r17
  8023e8:	dfc00217 	ldw	ra,8(sp)
  8023ec:	dc400117 	ldw	r17,4(sp)
  8023f0:	dc000017 	ldw	r16,0(sp)
  8023f4:	dec00304 	addi	sp,sp,12
  8023f8:	080329c1 	jmpi	80329c <__srget_r>

008023fc <__smakebuf_r>:
  8023fc:	2880030b 	ldhu	r2,12(r5)
  802400:	10c0008c 	andi	r3,r2,2
  802404:	1800411e 	bne	r3,zero,80250c <__smakebuf_r+0x110>
  802408:	deffec04 	addi	sp,sp,-80
  80240c:	dc000f15 	stw	r16,60(sp)
  802410:	2821883a 	mov	r16,r5
  802414:	2940038f 	ldh	r5,14(r5)
  802418:	dc401015 	stw	r17,64(sp)
  80241c:	dfc01315 	stw	ra,76(sp)
  802420:	dcc01215 	stw	r19,72(sp)
  802424:	dc801115 	stw	r18,68(sp)
  802428:	2023883a 	mov	r17,r4
  80242c:	28001c16 	blt	r5,zero,8024a0 <__smakebuf_r+0xa4>
  802430:	d80d883a 	mov	r6,sp
  802434:	08020200 	call	802020 <_fstat_r>
  802438:	10001816 	blt	r2,zero,80249c <__smakebuf_r+0xa0>
  80243c:	d8800117 	ldw	r2,4(sp)
  802440:	00e00014 	movui	r3,32768
  802444:	10bc000c 	andi	r2,r2,61440
  802448:	14c80020 	cmpeqi	r19,r2,8192
  80244c:	10c03726 	beq	r2,r3,80252c <__smakebuf_r+0x130>
  802450:	80c0030b 	ldhu	r3,12(r16)
  802454:	18c20014 	ori	r3,r3,2048
  802458:	80c0030d 	sth	r3,12(r16)
  80245c:	00c80004 	movi	r3,8192
  802460:	10c0521e 	bne	r2,r3,8025ac <__smakebuf_r+0x1b0>
  802464:	8140038f 	ldh	r5,14(r16)
  802468:	8809883a 	mov	r4,r17
  80246c:	08090c40 	call	8090c4 <_isatty_r>
  802470:	10004c26 	beq	r2,zero,8025a4 <__smakebuf_r+0x1a8>
  802474:	8080030b 	ldhu	r2,12(r16)
  802478:	80c010c4 	addi	r3,r16,67
  80247c:	80c00015 	stw	r3,0(r16)
  802480:	10800054 	ori	r2,r2,1
  802484:	8080030d 	sth	r2,12(r16)
  802488:	00800044 	movi	r2,1
  80248c:	80c00415 	stw	r3,16(r16)
  802490:	80800515 	stw	r2,20(r16)
  802494:	04810004 	movi	r18,1024
  802498:	00000706 	br	8024b8 <__smakebuf_r+0xbc>
  80249c:	8080030b 	ldhu	r2,12(r16)
  8024a0:	10c0200c 	andi	r3,r2,128
  8024a4:	18001f1e 	bne	r3,zero,802524 <__smakebuf_r+0x128>
  8024a8:	04810004 	movi	r18,1024
  8024ac:	10820014 	ori	r2,r2,2048
  8024b0:	8080030d 	sth	r2,12(r16)
  8024b4:	0027883a 	mov	r19,zero
  8024b8:	900b883a 	mov	r5,r18
  8024bc:	8809883a 	mov	r4,r17
  8024c0:	08025b80 	call	8025b8 <_malloc_r>
  8024c4:	10002c26 	beq	r2,zero,802578 <__smakebuf_r+0x17c>
  8024c8:	80c0030b 	ldhu	r3,12(r16)
  8024cc:	01002034 	movhi	r4,128
  8024d0:	21049f04 	addi	r4,r4,4732
  8024d4:	89000f15 	stw	r4,60(r17)
  8024d8:	18c02014 	ori	r3,r3,128
  8024dc:	80c0030d 	sth	r3,12(r16)
  8024e0:	80800015 	stw	r2,0(r16)
  8024e4:	80800415 	stw	r2,16(r16)
  8024e8:	84800515 	stw	r18,20(r16)
  8024ec:	98001a1e 	bne	r19,zero,802558 <__smakebuf_r+0x15c>
  8024f0:	dfc01317 	ldw	ra,76(sp)
  8024f4:	dcc01217 	ldw	r19,72(sp)
  8024f8:	dc801117 	ldw	r18,68(sp)
  8024fc:	dc401017 	ldw	r17,64(sp)
  802500:	dc000f17 	ldw	r16,60(sp)
  802504:	dec01404 	addi	sp,sp,80
  802508:	f800283a 	ret
  80250c:	288010c4 	addi	r2,r5,67
  802510:	28800015 	stw	r2,0(r5)
  802514:	28800415 	stw	r2,16(r5)
  802518:	00800044 	movi	r2,1
  80251c:	28800515 	stw	r2,20(r5)
  802520:	f800283a 	ret
  802524:	04801004 	movi	r18,64
  802528:	003fe006 	br	8024ac <__alt_data_end+0xff8024ac>
  80252c:	81000a17 	ldw	r4,40(r16)
  802530:	00c02034 	movhi	r3,128
  802534:	18cd5104 	addi	r3,r3,13636
  802538:	20ffc51e 	bne	r4,r3,802450 <__alt_data_end+0xff802450>
  80253c:	8080030b 	ldhu	r2,12(r16)
  802540:	04810004 	movi	r18,1024
  802544:	84801315 	stw	r18,76(r16)
  802548:	1484b03a 	or	r2,r2,r18
  80254c:	8080030d 	sth	r2,12(r16)
  802550:	0027883a 	mov	r19,zero
  802554:	003fd806 	br	8024b8 <__alt_data_end+0xff8024b8>
  802558:	8140038f 	ldh	r5,14(r16)
  80255c:	8809883a 	mov	r4,r17
  802560:	08090c40 	call	8090c4 <_isatty_r>
  802564:	103fe226 	beq	r2,zero,8024f0 <__alt_data_end+0xff8024f0>
  802568:	8080030b 	ldhu	r2,12(r16)
  80256c:	10800054 	ori	r2,r2,1
  802570:	8080030d 	sth	r2,12(r16)
  802574:	003fde06 	br	8024f0 <__alt_data_end+0xff8024f0>
  802578:	8080030b 	ldhu	r2,12(r16)
  80257c:	10c0800c 	andi	r3,r2,512
  802580:	183fdb1e 	bne	r3,zero,8024f0 <__alt_data_end+0xff8024f0>
  802584:	10800094 	ori	r2,r2,2
  802588:	80c010c4 	addi	r3,r16,67
  80258c:	8080030d 	sth	r2,12(r16)
  802590:	00800044 	movi	r2,1
  802594:	80c00015 	stw	r3,0(r16)
  802598:	80c00415 	stw	r3,16(r16)
  80259c:	80800515 	stw	r2,20(r16)
  8025a0:	003fd306 	br	8024f0 <__alt_data_end+0xff8024f0>
  8025a4:	04810004 	movi	r18,1024
  8025a8:	003fc306 	br	8024b8 <__alt_data_end+0xff8024b8>
  8025ac:	0027883a 	mov	r19,zero
  8025b0:	04810004 	movi	r18,1024
  8025b4:	003fc006 	br	8024b8 <__alt_data_end+0xff8024b8>

008025b8 <_malloc_r>:
  8025b8:	defff504 	addi	sp,sp,-44
  8025bc:	dc800315 	stw	r18,12(sp)
  8025c0:	dfc00a15 	stw	ra,40(sp)
  8025c4:	df000915 	stw	fp,36(sp)
  8025c8:	ddc00815 	stw	r23,32(sp)
  8025cc:	dd800715 	stw	r22,28(sp)
  8025d0:	dd400615 	stw	r21,24(sp)
  8025d4:	dd000515 	stw	r20,20(sp)
  8025d8:	dcc00415 	stw	r19,16(sp)
  8025dc:	dc400215 	stw	r17,8(sp)
  8025e0:	dc000115 	stw	r16,4(sp)
  8025e4:	288002c4 	addi	r2,r5,11
  8025e8:	00c00584 	movi	r3,22
  8025ec:	2025883a 	mov	r18,r4
  8025f0:	18807f2e 	bgeu	r3,r2,8027f0 <_malloc_r+0x238>
  8025f4:	047ffe04 	movi	r17,-8
  8025f8:	1462703a 	and	r17,r2,r17
  8025fc:	8800a316 	blt	r17,zero,80288c <_malloc_r+0x2d4>
  802600:	8940a236 	bltu	r17,r5,80288c <_malloc_r+0x2d4>
  802604:	081874c0 	call	81874c <__malloc_lock>
  802608:	00807dc4 	movi	r2,503
  80260c:	1441e92e 	bgeu	r2,r17,802db4 <_malloc_r+0x7fc>
  802610:	8804d27a 	srli	r2,r17,9
  802614:	1000a126 	beq	r2,zero,80289c <_malloc_r+0x2e4>
  802618:	00c00104 	movi	r3,4
  80261c:	18811e36 	bltu	r3,r2,802a98 <_malloc_r+0x4e0>
  802620:	8804d1ba 	srli	r2,r17,6
  802624:	12000e44 	addi	r8,r2,57
  802628:	11c00e04 	addi	r7,r2,56
  80262c:	4209883a 	add	r4,r8,r8
  802630:	04c020b4 	movhi	r19,130
  802634:	2109883a 	add	r4,r4,r4
  802638:	9cf45104 	addi	r19,r19,-11964
  80263c:	2109883a 	add	r4,r4,r4
  802640:	9909883a 	add	r4,r19,r4
  802644:	24000117 	ldw	r16,4(r4)
  802648:	213ffe04 	addi	r4,r4,-8
  80264c:	24009726 	beq	r4,r16,8028ac <_malloc_r+0x2f4>
  802650:	80800117 	ldw	r2,4(r16)
  802654:	01bfff04 	movi	r6,-4
  802658:	014003c4 	movi	r5,15
  80265c:	1184703a 	and	r2,r2,r6
  802660:	1447c83a 	sub	r3,r2,r17
  802664:	28c00716 	blt	r5,r3,802684 <_malloc_r+0xcc>
  802668:	1800920e 	bge	r3,zero,8028b4 <_malloc_r+0x2fc>
  80266c:	84000317 	ldw	r16,12(r16)
  802670:	24008e26 	beq	r4,r16,8028ac <_malloc_r+0x2f4>
  802674:	80800117 	ldw	r2,4(r16)
  802678:	1184703a 	and	r2,r2,r6
  80267c:	1447c83a 	sub	r3,r2,r17
  802680:	28fff90e 	bge	r5,r3,802668 <__alt_data_end+0xff802668>
  802684:	3809883a 	mov	r4,r7
  802688:	018020b4 	movhi	r6,130
  80268c:	9c000417 	ldw	r16,16(r19)
  802690:	31b45104 	addi	r6,r6,-11964
  802694:	32000204 	addi	r8,r6,8
  802698:	82013426 	beq	r16,r8,802b6c <_malloc_r+0x5b4>
  80269c:	80c00117 	ldw	r3,4(r16)
  8026a0:	00bfff04 	movi	r2,-4
  8026a4:	188e703a 	and	r7,r3,r2
  8026a8:	3c45c83a 	sub	r2,r7,r17
  8026ac:	00c003c4 	movi	r3,15
  8026b0:	18811f16 	blt	r3,r2,802b30 <_malloc_r+0x578>
  8026b4:	32000515 	stw	r8,20(r6)
  8026b8:	32000415 	stw	r8,16(r6)
  8026bc:	10007f0e 	bge	r2,zero,8028bc <_malloc_r+0x304>
  8026c0:	00807fc4 	movi	r2,511
  8026c4:	11c0fd36 	bltu	r2,r7,802abc <_malloc_r+0x504>
  8026c8:	3806d0fa 	srli	r3,r7,3
  8026cc:	01c00044 	movi	r7,1
  8026d0:	30800117 	ldw	r2,4(r6)
  8026d4:	19400044 	addi	r5,r3,1
  8026d8:	294b883a 	add	r5,r5,r5
  8026dc:	1807d0ba 	srai	r3,r3,2
  8026e0:	294b883a 	add	r5,r5,r5
  8026e4:	294b883a 	add	r5,r5,r5
  8026e8:	298b883a 	add	r5,r5,r6
  8026ec:	38c6983a 	sll	r3,r7,r3
  8026f0:	29c00017 	ldw	r7,0(r5)
  8026f4:	2a7ffe04 	addi	r9,r5,-8
  8026f8:	1886b03a 	or	r3,r3,r2
  8026fc:	82400315 	stw	r9,12(r16)
  802700:	81c00215 	stw	r7,8(r16)
  802704:	30c00115 	stw	r3,4(r6)
  802708:	2c000015 	stw	r16,0(r5)
  80270c:	3c000315 	stw	r16,12(r7)
  802710:	2005d0ba 	srai	r2,r4,2
  802714:	01400044 	movi	r5,1
  802718:	288a983a 	sll	r5,r5,r2
  80271c:	19406f36 	bltu	r3,r5,8028dc <_malloc_r+0x324>
  802720:	28c4703a 	and	r2,r5,r3
  802724:	10000a1e 	bne	r2,zero,802750 <_malloc_r+0x198>
  802728:	00bfff04 	movi	r2,-4
  80272c:	294b883a 	add	r5,r5,r5
  802730:	2088703a 	and	r4,r4,r2
  802734:	28c4703a 	and	r2,r5,r3
  802738:	21000104 	addi	r4,r4,4
  80273c:	1000041e 	bne	r2,zero,802750 <_malloc_r+0x198>
  802740:	294b883a 	add	r5,r5,r5
  802744:	28c4703a 	and	r2,r5,r3
  802748:	21000104 	addi	r4,r4,4
  80274c:	103ffc26 	beq	r2,zero,802740 <__alt_data_end+0xff802740>
  802750:	02bfff04 	movi	r10,-4
  802754:	024003c4 	movi	r9,15
  802758:	21800044 	addi	r6,r4,1
  80275c:	318d883a 	add	r6,r6,r6
  802760:	318d883a 	add	r6,r6,r6
  802764:	318d883a 	add	r6,r6,r6
  802768:	998d883a 	add	r6,r19,r6
  80276c:	333ffe04 	addi	r12,r6,-8
  802770:	2017883a 	mov	r11,r4
  802774:	31800104 	addi	r6,r6,4
  802778:	34000017 	ldw	r16,0(r6)
  80277c:	31fffd04 	addi	r7,r6,-12
  802780:	81c0041e 	bne	r16,r7,802794 <_malloc_r+0x1dc>
  802784:	0000fb06 	br	802b74 <_malloc_r+0x5bc>
  802788:	1801030e 	bge	r3,zero,802b98 <_malloc_r+0x5e0>
  80278c:	84000317 	ldw	r16,12(r16)
  802790:	81c0f826 	beq	r16,r7,802b74 <_malloc_r+0x5bc>
  802794:	80800117 	ldw	r2,4(r16)
  802798:	1284703a 	and	r2,r2,r10
  80279c:	1447c83a 	sub	r3,r2,r17
  8027a0:	48fff90e 	bge	r9,r3,802788 <__alt_data_end+0xff802788>
  8027a4:	80800317 	ldw	r2,12(r16)
  8027a8:	81000217 	ldw	r4,8(r16)
  8027ac:	89400054 	ori	r5,r17,1
  8027b0:	81400115 	stw	r5,4(r16)
  8027b4:	20800315 	stw	r2,12(r4)
  8027b8:	11000215 	stw	r4,8(r2)
  8027bc:	8463883a 	add	r17,r16,r17
  8027c0:	9c400515 	stw	r17,20(r19)
  8027c4:	9c400415 	stw	r17,16(r19)
  8027c8:	18800054 	ori	r2,r3,1
  8027cc:	88800115 	stw	r2,4(r17)
  8027d0:	8a000315 	stw	r8,12(r17)
  8027d4:	8a000215 	stw	r8,8(r17)
  8027d8:	88e3883a 	add	r17,r17,r3
  8027dc:	88c00015 	stw	r3,0(r17)
  8027e0:	9009883a 	mov	r4,r18
  8027e4:	08187700 	call	818770 <__malloc_unlock>
  8027e8:	80800204 	addi	r2,r16,8
  8027ec:	00001b06 	br	80285c <_malloc_r+0x2a4>
  8027f0:	04400404 	movi	r17,16
  8027f4:	89402536 	bltu	r17,r5,80288c <_malloc_r+0x2d4>
  8027f8:	081874c0 	call	81874c <__malloc_lock>
  8027fc:	00800184 	movi	r2,6
  802800:	01000084 	movi	r4,2
  802804:	04c020b4 	movhi	r19,130
  802808:	1085883a 	add	r2,r2,r2
  80280c:	9cf45104 	addi	r19,r19,-11964
  802810:	1085883a 	add	r2,r2,r2
  802814:	9885883a 	add	r2,r19,r2
  802818:	14000117 	ldw	r16,4(r2)
  80281c:	10fffe04 	addi	r3,r2,-8
  802820:	80c0d926 	beq	r16,r3,802b88 <_malloc_r+0x5d0>
  802824:	80c00117 	ldw	r3,4(r16)
  802828:	81000317 	ldw	r4,12(r16)
  80282c:	00bfff04 	movi	r2,-4
  802830:	1884703a 	and	r2,r3,r2
  802834:	81400217 	ldw	r5,8(r16)
  802838:	8085883a 	add	r2,r16,r2
  80283c:	10c00117 	ldw	r3,4(r2)
  802840:	29000315 	stw	r4,12(r5)
  802844:	21400215 	stw	r5,8(r4)
  802848:	18c00054 	ori	r3,r3,1
  80284c:	10c00115 	stw	r3,4(r2)
  802850:	9009883a 	mov	r4,r18
  802854:	08187700 	call	818770 <__malloc_unlock>
  802858:	80800204 	addi	r2,r16,8
  80285c:	dfc00a17 	ldw	ra,40(sp)
  802860:	df000917 	ldw	fp,36(sp)
  802864:	ddc00817 	ldw	r23,32(sp)
  802868:	dd800717 	ldw	r22,28(sp)
  80286c:	dd400617 	ldw	r21,24(sp)
  802870:	dd000517 	ldw	r20,20(sp)
  802874:	dcc00417 	ldw	r19,16(sp)
  802878:	dc800317 	ldw	r18,12(sp)
  80287c:	dc400217 	ldw	r17,8(sp)
  802880:	dc000117 	ldw	r16,4(sp)
  802884:	dec00b04 	addi	sp,sp,44
  802888:	f800283a 	ret
  80288c:	00800304 	movi	r2,12
  802890:	90800015 	stw	r2,0(r18)
  802894:	0005883a 	mov	r2,zero
  802898:	003ff006 	br	80285c <__alt_data_end+0xff80285c>
  80289c:	01002004 	movi	r4,128
  8028a0:	02001004 	movi	r8,64
  8028a4:	01c00fc4 	movi	r7,63
  8028a8:	003f6106 	br	802630 <__alt_data_end+0xff802630>
  8028ac:	4009883a 	mov	r4,r8
  8028b0:	003f7506 	br	802688 <__alt_data_end+0xff802688>
  8028b4:	81000317 	ldw	r4,12(r16)
  8028b8:	003fde06 	br	802834 <__alt_data_end+0xff802834>
  8028bc:	81c5883a 	add	r2,r16,r7
  8028c0:	11400117 	ldw	r5,4(r2)
  8028c4:	9009883a 	mov	r4,r18
  8028c8:	29400054 	ori	r5,r5,1
  8028cc:	11400115 	stw	r5,4(r2)
  8028d0:	08187700 	call	818770 <__malloc_unlock>
  8028d4:	80800204 	addi	r2,r16,8
  8028d8:	003fe006 	br	80285c <__alt_data_end+0xff80285c>
  8028dc:	9c000217 	ldw	r16,8(r19)
  8028e0:	00bfff04 	movi	r2,-4
  8028e4:	85800117 	ldw	r22,4(r16)
  8028e8:	b0ac703a 	and	r22,r22,r2
  8028ec:	b4400336 	bltu	r22,r17,8028fc <_malloc_r+0x344>
  8028f0:	b445c83a 	sub	r2,r22,r17
  8028f4:	00c003c4 	movi	r3,15
  8028f8:	18805d16 	blt	r3,r2,802a70 <_malloc_r+0x4b8>
  8028fc:	05c020b4 	movhi	r23,130
  802900:	008020b4 	movhi	r2,130
  802904:	1081f304 	addi	r2,r2,1996
  802908:	bdfa8604 	addi	r23,r23,-5608
  80290c:	15400017 	ldw	r21,0(r2)
  802910:	b8c00017 	ldw	r3,0(r23)
  802914:	00bfffc4 	movi	r2,-1
  802918:	858d883a 	add	r6,r16,r22
  80291c:	8d6b883a 	add	r21,r17,r21
  802920:	1880ea26 	beq	r3,r2,802ccc <_malloc_r+0x714>
  802924:	ad4403c4 	addi	r21,r21,4111
  802928:	00bc0004 	movi	r2,-4096
  80292c:	a8aa703a 	and	r21,r21,r2
  802930:	a80b883a 	mov	r5,r21
  802934:	9009883a 	mov	r4,r18
  802938:	d9800015 	stw	r6,0(sp)
  80293c:	08033240 	call	803324 <_sbrk_r>
  802940:	1029883a 	mov	r20,r2
  802944:	00bfffc4 	movi	r2,-1
  802948:	d9800017 	ldw	r6,0(sp)
  80294c:	a080e826 	beq	r20,r2,802cf0 <_malloc_r+0x738>
  802950:	a180a636 	bltu	r20,r6,802bec <_malloc_r+0x634>
  802954:	070020b4 	movhi	fp,130
  802958:	e701fe04 	addi	fp,fp,2040
  80295c:	e0800017 	ldw	r2,0(fp)
  802960:	a887883a 	add	r3,r21,r2
  802964:	e0c00015 	stw	r3,0(fp)
  802968:	3500e626 	beq	r6,r20,802d04 <_malloc_r+0x74c>
  80296c:	b9000017 	ldw	r4,0(r23)
  802970:	00bfffc4 	movi	r2,-1
  802974:	2080ee26 	beq	r4,r2,802d30 <_malloc_r+0x778>
  802978:	a185c83a 	sub	r2,r20,r6
  80297c:	10c5883a 	add	r2,r2,r3
  802980:	e0800015 	stw	r2,0(fp)
  802984:	a0c001cc 	andi	r3,r20,7
  802988:	1800bc26 	beq	r3,zero,802c7c <_malloc_r+0x6c4>
  80298c:	a0e9c83a 	sub	r20,r20,r3
  802990:	00840204 	movi	r2,4104
  802994:	a5000204 	addi	r20,r20,8
  802998:	10c7c83a 	sub	r3,r2,r3
  80299c:	a545883a 	add	r2,r20,r21
  8029a0:	1083ffcc 	andi	r2,r2,4095
  8029a4:	18abc83a 	sub	r21,r3,r2
  8029a8:	a80b883a 	mov	r5,r21
  8029ac:	9009883a 	mov	r4,r18
  8029b0:	08033240 	call	803324 <_sbrk_r>
  8029b4:	00ffffc4 	movi	r3,-1
  8029b8:	10c0e126 	beq	r2,r3,802d40 <_malloc_r+0x788>
  8029bc:	1505c83a 	sub	r2,r2,r20
  8029c0:	1545883a 	add	r2,r2,r21
  8029c4:	10800054 	ori	r2,r2,1
  8029c8:	e0c00017 	ldw	r3,0(fp)
  8029cc:	9d000215 	stw	r20,8(r19)
  8029d0:	a0800115 	stw	r2,4(r20)
  8029d4:	a8c7883a 	add	r3,r21,r3
  8029d8:	e0c00015 	stw	r3,0(fp)
  8029dc:	84c00e26 	beq	r16,r19,802a18 <_malloc_r+0x460>
  8029e0:	018003c4 	movi	r6,15
  8029e4:	3580a72e 	bgeu	r6,r22,802c84 <_malloc_r+0x6cc>
  8029e8:	81400117 	ldw	r5,4(r16)
  8029ec:	013ffe04 	movi	r4,-8
  8029f0:	b0bffd04 	addi	r2,r22,-12
  8029f4:	1104703a 	and	r2,r2,r4
  8029f8:	2900004c 	andi	r4,r5,1
  8029fc:	2088b03a 	or	r4,r4,r2
  802a00:	81000115 	stw	r4,4(r16)
  802a04:	01400144 	movi	r5,5
  802a08:	8089883a 	add	r4,r16,r2
  802a0c:	21400115 	stw	r5,4(r4)
  802a10:	21400215 	stw	r5,8(r4)
  802a14:	3080cd36 	bltu	r6,r2,802d4c <_malloc_r+0x794>
  802a18:	008020b4 	movhi	r2,130
  802a1c:	1081f204 	addi	r2,r2,1992
  802a20:	11000017 	ldw	r4,0(r2)
  802a24:	20c0012e 	bgeu	r4,r3,802a2c <_malloc_r+0x474>
  802a28:	10c00015 	stw	r3,0(r2)
  802a2c:	008020b4 	movhi	r2,130
  802a30:	1081f104 	addi	r2,r2,1988
  802a34:	11000017 	ldw	r4,0(r2)
  802a38:	9c000217 	ldw	r16,8(r19)
  802a3c:	20c0012e 	bgeu	r4,r3,802a44 <_malloc_r+0x48c>
  802a40:	10c00015 	stw	r3,0(r2)
  802a44:	80c00117 	ldw	r3,4(r16)
  802a48:	00bfff04 	movi	r2,-4
  802a4c:	1886703a 	and	r3,r3,r2
  802a50:	1c45c83a 	sub	r2,r3,r17
  802a54:	1c400236 	bltu	r3,r17,802a60 <_malloc_r+0x4a8>
  802a58:	00c003c4 	movi	r3,15
  802a5c:	18800416 	blt	r3,r2,802a70 <_malloc_r+0x4b8>
  802a60:	9009883a 	mov	r4,r18
  802a64:	08187700 	call	818770 <__malloc_unlock>
  802a68:	0005883a 	mov	r2,zero
  802a6c:	003f7b06 	br	80285c <__alt_data_end+0xff80285c>
  802a70:	88c00054 	ori	r3,r17,1
  802a74:	80c00115 	stw	r3,4(r16)
  802a78:	8463883a 	add	r17,r16,r17
  802a7c:	10800054 	ori	r2,r2,1
  802a80:	9c400215 	stw	r17,8(r19)
  802a84:	88800115 	stw	r2,4(r17)
  802a88:	9009883a 	mov	r4,r18
  802a8c:	08187700 	call	818770 <__malloc_unlock>
  802a90:	80800204 	addi	r2,r16,8
  802a94:	003f7106 	br	80285c <__alt_data_end+0xff80285c>
  802a98:	00c00504 	movi	r3,20
  802a9c:	18804a2e 	bgeu	r3,r2,802bc8 <_malloc_r+0x610>
  802aa0:	00c01504 	movi	r3,84
  802aa4:	18806e36 	bltu	r3,r2,802c60 <_malloc_r+0x6a8>
  802aa8:	8804d33a 	srli	r2,r17,12
  802aac:	12001bc4 	addi	r8,r2,111
  802ab0:	11c01b84 	addi	r7,r2,110
  802ab4:	4209883a 	add	r4,r8,r8
  802ab8:	003edd06 	br	802630 <__alt_data_end+0xff802630>
  802abc:	3804d27a 	srli	r2,r7,9
  802ac0:	00c00104 	movi	r3,4
  802ac4:	1880442e 	bgeu	r3,r2,802bd8 <_malloc_r+0x620>
  802ac8:	00c00504 	movi	r3,20
  802acc:	18808136 	bltu	r3,r2,802cd4 <_malloc_r+0x71c>
  802ad0:	11401704 	addi	r5,r2,92
  802ad4:	10c016c4 	addi	r3,r2,91
  802ad8:	294b883a 	add	r5,r5,r5
  802adc:	294b883a 	add	r5,r5,r5
  802ae0:	294b883a 	add	r5,r5,r5
  802ae4:	994b883a 	add	r5,r19,r5
  802ae8:	28800017 	ldw	r2,0(r5)
  802aec:	018020b4 	movhi	r6,130
  802af0:	297ffe04 	addi	r5,r5,-8
  802af4:	31b45104 	addi	r6,r6,-11964
  802af8:	28806526 	beq	r5,r2,802c90 <_malloc_r+0x6d8>
  802afc:	01bfff04 	movi	r6,-4
  802b00:	10c00117 	ldw	r3,4(r2)
  802b04:	1986703a 	and	r3,r3,r6
  802b08:	38c0022e 	bgeu	r7,r3,802b14 <_malloc_r+0x55c>
  802b0c:	10800217 	ldw	r2,8(r2)
  802b10:	28bffb1e 	bne	r5,r2,802b00 <__alt_data_end+0xff802b00>
  802b14:	11400317 	ldw	r5,12(r2)
  802b18:	98c00117 	ldw	r3,4(r19)
  802b1c:	81400315 	stw	r5,12(r16)
  802b20:	80800215 	stw	r2,8(r16)
  802b24:	2c000215 	stw	r16,8(r5)
  802b28:	14000315 	stw	r16,12(r2)
  802b2c:	003ef806 	br	802710 <__alt_data_end+0xff802710>
  802b30:	88c00054 	ori	r3,r17,1
  802b34:	80c00115 	stw	r3,4(r16)
  802b38:	8463883a 	add	r17,r16,r17
  802b3c:	34400515 	stw	r17,20(r6)
  802b40:	34400415 	stw	r17,16(r6)
  802b44:	10c00054 	ori	r3,r2,1
  802b48:	8a000315 	stw	r8,12(r17)
  802b4c:	8a000215 	stw	r8,8(r17)
  802b50:	88c00115 	stw	r3,4(r17)
  802b54:	88a3883a 	add	r17,r17,r2
  802b58:	88800015 	stw	r2,0(r17)
  802b5c:	9009883a 	mov	r4,r18
  802b60:	08187700 	call	818770 <__malloc_unlock>
  802b64:	80800204 	addi	r2,r16,8
  802b68:	003f3c06 	br	80285c <__alt_data_end+0xff80285c>
  802b6c:	30c00117 	ldw	r3,4(r6)
  802b70:	003ee706 	br	802710 <__alt_data_end+0xff802710>
  802b74:	5ac00044 	addi	r11,r11,1
  802b78:	588000cc 	andi	r2,r11,3
  802b7c:	31800204 	addi	r6,r6,8
  802b80:	103efd1e 	bne	r2,zero,802778 <__alt_data_end+0xff802778>
  802b84:	00002406 	br	802c18 <_malloc_r+0x660>
  802b88:	14000317 	ldw	r16,12(r2)
  802b8c:	143f251e 	bne	r2,r16,802824 <__alt_data_end+0xff802824>
  802b90:	21000084 	addi	r4,r4,2
  802b94:	003ebc06 	br	802688 <__alt_data_end+0xff802688>
  802b98:	8085883a 	add	r2,r16,r2
  802b9c:	10c00117 	ldw	r3,4(r2)
  802ba0:	81000317 	ldw	r4,12(r16)
  802ba4:	81400217 	ldw	r5,8(r16)
  802ba8:	18c00054 	ori	r3,r3,1
  802bac:	10c00115 	stw	r3,4(r2)
  802bb0:	29000315 	stw	r4,12(r5)
  802bb4:	21400215 	stw	r5,8(r4)
  802bb8:	9009883a 	mov	r4,r18
  802bbc:	08187700 	call	818770 <__malloc_unlock>
  802bc0:	80800204 	addi	r2,r16,8
  802bc4:	003f2506 	br	80285c <__alt_data_end+0xff80285c>
  802bc8:	12001704 	addi	r8,r2,92
  802bcc:	11c016c4 	addi	r7,r2,91
  802bd0:	4209883a 	add	r4,r8,r8
  802bd4:	003e9606 	br	802630 <__alt_data_end+0xff802630>
  802bd8:	3804d1ba 	srli	r2,r7,6
  802bdc:	11400e44 	addi	r5,r2,57
  802be0:	10c00e04 	addi	r3,r2,56
  802be4:	294b883a 	add	r5,r5,r5
  802be8:	003fbc06 	br	802adc <__alt_data_end+0xff802adc>
  802bec:	84ff5926 	beq	r16,r19,802954 <__alt_data_end+0xff802954>
  802bf0:	008020b4 	movhi	r2,130
  802bf4:	10b45104 	addi	r2,r2,-11964
  802bf8:	14000217 	ldw	r16,8(r2)
  802bfc:	00bfff04 	movi	r2,-4
  802c00:	80c00117 	ldw	r3,4(r16)
  802c04:	1886703a 	and	r3,r3,r2
  802c08:	003f9106 	br	802a50 <__alt_data_end+0xff802a50>
  802c0c:	60800217 	ldw	r2,8(r12)
  802c10:	213fffc4 	addi	r4,r4,-1
  802c14:	1300651e 	bne	r2,r12,802dac <_malloc_r+0x7f4>
  802c18:	208000cc 	andi	r2,r4,3
  802c1c:	633ffe04 	addi	r12,r12,-8
  802c20:	103ffa1e 	bne	r2,zero,802c0c <__alt_data_end+0xff802c0c>
  802c24:	98800117 	ldw	r2,4(r19)
  802c28:	0146303a 	nor	r3,zero,r5
  802c2c:	1884703a 	and	r2,r3,r2
  802c30:	98800115 	stw	r2,4(r19)
  802c34:	294b883a 	add	r5,r5,r5
  802c38:	117f2836 	bltu	r2,r5,8028dc <__alt_data_end+0xff8028dc>
  802c3c:	283f2726 	beq	r5,zero,8028dc <__alt_data_end+0xff8028dc>
  802c40:	2886703a 	and	r3,r5,r2
  802c44:	5809883a 	mov	r4,r11
  802c48:	183ec31e 	bne	r3,zero,802758 <__alt_data_end+0xff802758>
  802c4c:	294b883a 	add	r5,r5,r5
  802c50:	2886703a 	and	r3,r5,r2
  802c54:	21000104 	addi	r4,r4,4
  802c58:	183ffc26 	beq	r3,zero,802c4c <__alt_data_end+0xff802c4c>
  802c5c:	003ebe06 	br	802758 <__alt_data_end+0xff802758>
  802c60:	00c05504 	movi	r3,340
  802c64:	18801236 	bltu	r3,r2,802cb0 <_malloc_r+0x6f8>
  802c68:	8804d3fa 	srli	r2,r17,15
  802c6c:	12001e04 	addi	r8,r2,120
  802c70:	11c01dc4 	addi	r7,r2,119
  802c74:	4209883a 	add	r4,r8,r8
  802c78:	003e6d06 	br	802630 <__alt_data_end+0xff802630>
  802c7c:	00c40004 	movi	r3,4096
  802c80:	003f4606 	br	80299c <__alt_data_end+0xff80299c>
  802c84:	00800044 	movi	r2,1
  802c88:	a0800115 	stw	r2,4(r20)
  802c8c:	003f7406 	br	802a60 <__alt_data_end+0xff802a60>
  802c90:	1805d0ba 	srai	r2,r3,2
  802c94:	01c00044 	movi	r7,1
  802c98:	30c00117 	ldw	r3,4(r6)
  802c9c:	388e983a 	sll	r7,r7,r2
  802ca0:	2805883a 	mov	r2,r5
  802ca4:	38c6b03a 	or	r3,r7,r3
  802ca8:	30c00115 	stw	r3,4(r6)
  802cac:	003f9b06 	br	802b1c <__alt_data_end+0xff802b1c>
  802cb0:	00c15504 	movi	r3,1364
  802cb4:	18801a36 	bltu	r3,r2,802d20 <_malloc_r+0x768>
  802cb8:	8804d4ba 	srli	r2,r17,18
  802cbc:	12001f44 	addi	r8,r2,125
  802cc0:	11c01f04 	addi	r7,r2,124
  802cc4:	4209883a 	add	r4,r8,r8
  802cc8:	003e5906 	br	802630 <__alt_data_end+0xff802630>
  802ccc:	ad400404 	addi	r21,r21,16
  802cd0:	003f1706 	br	802930 <__alt_data_end+0xff802930>
  802cd4:	00c01504 	movi	r3,84
  802cd8:	18802336 	bltu	r3,r2,802d68 <_malloc_r+0x7b0>
  802cdc:	3804d33a 	srli	r2,r7,12
  802ce0:	11401bc4 	addi	r5,r2,111
  802ce4:	10c01b84 	addi	r3,r2,110
  802ce8:	294b883a 	add	r5,r5,r5
  802cec:	003f7b06 	br	802adc <__alt_data_end+0xff802adc>
  802cf0:	9c000217 	ldw	r16,8(r19)
  802cf4:	00bfff04 	movi	r2,-4
  802cf8:	80c00117 	ldw	r3,4(r16)
  802cfc:	1886703a 	and	r3,r3,r2
  802d00:	003f5306 	br	802a50 <__alt_data_end+0xff802a50>
  802d04:	3083ffcc 	andi	r2,r6,4095
  802d08:	103f181e 	bne	r2,zero,80296c <__alt_data_end+0xff80296c>
  802d0c:	99000217 	ldw	r4,8(r19)
  802d10:	b545883a 	add	r2,r22,r21
  802d14:	10800054 	ori	r2,r2,1
  802d18:	20800115 	stw	r2,4(r4)
  802d1c:	003f3e06 	br	802a18 <__alt_data_end+0xff802a18>
  802d20:	01003f84 	movi	r4,254
  802d24:	02001fc4 	movi	r8,127
  802d28:	01c01f84 	movi	r7,126
  802d2c:	003e4006 	br	802630 <__alt_data_end+0xff802630>
  802d30:	008020b4 	movhi	r2,130
  802d34:	10ba8604 	addi	r2,r2,-5608
  802d38:	15000015 	stw	r20,0(r2)
  802d3c:	003f1106 	br	802984 <__alt_data_end+0xff802984>
  802d40:	00800044 	movi	r2,1
  802d44:	002b883a 	mov	r21,zero
  802d48:	003f1f06 	br	8029c8 <__alt_data_end+0xff8029c8>
  802d4c:	81400204 	addi	r5,r16,8
  802d50:	9009883a 	mov	r4,r18
  802d54:	08018900 	call	801890 <_free_r>
  802d58:	008020b4 	movhi	r2,130
  802d5c:	1081fe04 	addi	r2,r2,2040
  802d60:	10c00017 	ldw	r3,0(r2)
  802d64:	003f2c06 	br	802a18 <__alt_data_end+0xff802a18>
  802d68:	00c05504 	movi	r3,340
  802d6c:	18800536 	bltu	r3,r2,802d84 <_malloc_r+0x7cc>
  802d70:	3804d3fa 	srli	r2,r7,15
  802d74:	11401e04 	addi	r5,r2,120
  802d78:	10c01dc4 	addi	r3,r2,119
  802d7c:	294b883a 	add	r5,r5,r5
  802d80:	003f5606 	br	802adc <__alt_data_end+0xff802adc>
  802d84:	00c15504 	movi	r3,1364
  802d88:	18800536 	bltu	r3,r2,802da0 <_malloc_r+0x7e8>
  802d8c:	3804d4ba 	srli	r2,r7,18
  802d90:	11401f44 	addi	r5,r2,125
  802d94:	10c01f04 	addi	r3,r2,124
  802d98:	294b883a 	add	r5,r5,r5
  802d9c:	003f4f06 	br	802adc <__alt_data_end+0xff802adc>
  802da0:	01403f84 	movi	r5,254
  802da4:	00c01f84 	movi	r3,126
  802da8:	003f4c06 	br	802adc <__alt_data_end+0xff802adc>
  802dac:	98800117 	ldw	r2,4(r19)
  802db0:	003fa006 	br	802c34 <__alt_data_end+0xff802c34>
  802db4:	8808d0fa 	srli	r4,r17,3
  802db8:	20800044 	addi	r2,r4,1
  802dbc:	1085883a 	add	r2,r2,r2
  802dc0:	003e9006 	br	802804 <__alt_data_end+0xff802804>

00802dc4 <memset>:
  802dc4:	20c000cc 	andi	r3,r4,3
  802dc8:	2005883a 	mov	r2,r4
  802dcc:	18004426 	beq	r3,zero,802ee0 <memset+0x11c>
  802dd0:	31ffffc4 	addi	r7,r6,-1
  802dd4:	30004026 	beq	r6,zero,802ed8 <memset+0x114>
  802dd8:	2813883a 	mov	r9,r5
  802ddc:	200d883a 	mov	r6,r4
  802de0:	2007883a 	mov	r3,r4
  802de4:	00000406 	br	802df8 <memset+0x34>
  802de8:	3a3fffc4 	addi	r8,r7,-1
  802dec:	31800044 	addi	r6,r6,1
  802df0:	38003926 	beq	r7,zero,802ed8 <memset+0x114>
  802df4:	400f883a 	mov	r7,r8
  802df8:	18c00044 	addi	r3,r3,1
  802dfc:	32400005 	stb	r9,0(r6)
  802e00:	1a0000cc 	andi	r8,r3,3
  802e04:	403ff81e 	bne	r8,zero,802de8 <__alt_data_end+0xff802de8>
  802e08:	010000c4 	movi	r4,3
  802e0c:	21c02d2e 	bgeu	r4,r7,802ec4 <memset+0x100>
  802e10:	29003fcc 	andi	r4,r5,255
  802e14:	200c923a 	slli	r6,r4,8
  802e18:	3108b03a 	or	r4,r6,r4
  802e1c:	200c943a 	slli	r6,r4,16
  802e20:	218cb03a 	or	r6,r4,r6
  802e24:	010003c4 	movi	r4,15
  802e28:	21c0182e 	bgeu	r4,r7,802e8c <memset+0xc8>
  802e2c:	3b3ffc04 	addi	r12,r7,-16
  802e30:	6018d13a 	srli	r12,r12,4
  802e34:	1a000104 	addi	r8,r3,4
  802e38:	1ac00204 	addi	r11,r3,8
  802e3c:	6008913a 	slli	r4,r12,4
  802e40:	1a800304 	addi	r10,r3,12
  802e44:	1813883a 	mov	r9,r3
  802e48:	21000504 	addi	r4,r4,20
  802e4c:	1909883a 	add	r4,r3,r4
  802e50:	49800015 	stw	r6,0(r9)
  802e54:	41800015 	stw	r6,0(r8)
  802e58:	59800015 	stw	r6,0(r11)
  802e5c:	51800015 	stw	r6,0(r10)
  802e60:	42000404 	addi	r8,r8,16
  802e64:	4a400404 	addi	r9,r9,16
  802e68:	5ac00404 	addi	r11,r11,16
  802e6c:	52800404 	addi	r10,r10,16
  802e70:	413ff71e 	bne	r8,r4,802e50 <__alt_data_end+0xff802e50>
  802e74:	63000044 	addi	r12,r12,1
  802e78:	6018913a 	slli	r12,r12,4
  802e7c:	39c003cc 	andi	r7,r7,15
  802e80:	010000c4 	movi	r4,3
  802e84:	1b07883a 	add	r3,r3,r12
  802e88:	21c00e2e 	bgeu	r4,r7,802ec4 <memset+0x100>
  802e8c:	1813883a 	mov	r9,r3
  802e90:	3811883a 	mov	r8,r7
  802e94:	010000c4 	movi	r4,3
  802e98:	49800015 	stw	r6,0(r9)
  802e9c:	423fff04 	addi	r8,r8,-4
  802ea0:	4a400104 	addi	r9,r9,4
  802ea4:	223ffc36 	bltu	r4,r8,802e98 <__alt_data_end+0xff802e98>
  802ea8:	393fff04 	addi	r4,r7,-4
  802eac:	2008d0ba 	srli	r4,r4,2
  802eb0:	39c000cc 	andi	r7,r7,3
  802eb4:	21000044 	addi	r4,r4,1
  802eb8:	2109883a 	add	r4,r4,r4
  802ebc:	2109883a 	add	r4,r4,r4
  802ec0:	1907883a 	add	r3,r3,r4
  802ec4:	38000526 	beq	r7,zero,802edc <memset+0x118>
  802ec8:	19cf883a 	add	r7,r3,r7
  802ecc:	19400005 	stb	r5,0(r3)
  802ed0:	18c00044 	addi	r3,r3,1
  802ed4:	38fffd1e 	bne	r7,r3,802ecc <__alt_data_end+0xff802ecc>
  802ed8:	f800283a 	ret
  802edc:	f800283a 	ret
  802ee0:	2007883a 	mov	r3,r4
  802ee4:	300f883a 	mov	r7,r6
  802ee8:	003fc706 	br	802e08 <__alt_data_end+0xff802e08>

00802eec <_open_r>:
  802eec:	defffd04 	addi	sp,sp,-12
  802ef0:	2805883a 	mov	r2,r5
  802ef4:	dc000015 	stw	r16,0(sp)
  802ef8:	040020b4 	movhi	r16,130
  802efc:	dc400115 	stw	r17,4(sp)
  802f00:	300b883a 	mov	r5,r6
  802f04:	8401f004 	addi	r16,r16,1984
  802f08:	2023883a 	mov	r17,r4
  802f0c:	380d883a 	mov	r6,r7
  802f10:	1009883a 	mov	r4,r2
  802f14:	dfc00215 	stw	ra,8(sp)
  802f18:	80000015 	stw	zero,0(r16)
  802f1c:	08188940 	call	818894 <open>
  802f20:	00ffffc4 	movi	r3,-1
  802f24:	10c00526 	beq	r2,r3,802f3c <_open_r+0x50>
  802f28:	dfc00217 	ldw	ra,8(sp)
  802f2c:	dc400117 	ldw	r17,4(sp)
  802f30:	dc000017 	ldw	r16,0(sp)
  802f34:	dec00304 	addi	sp,sp,12
  802f38:	f800283a 	ret
  802f3c:	80c00017 	ldw	r3,0(r16)
  802f40:	183ff926 	beq	r3,zero,802f28 <__alt_data_end+0xff802f28>
  802f44:	88c00015 	stw	r3,0(r17)
  802f48:	003ff706 	br	802f28 <__alt_data_end+0xff802f28>

00802f4c <_printf_r>:
  802f4c:	defffd04 	addi	sp,sp,-12
  802f50:	2805883a 	mov	r2,r5
  802f54:	dfc00015 	stw	ra,0(sp)
  802f58:	d9800115 	stw	r6,4(sp)
  802f5c:	d9c00215 	stw	r7,8(sp)
  802f60:	21400217 	ldw	r5,8(r4)
  802f64:	d9c00104 	addi	r7,sp,4
  802f68:	100d883a 	mov	r6,r2
  802f6c:	0804dfc0 	call	804dfc <___vfprintf_internal_r>
  802f70:	dfc00017 	ldw	ra,0(sp)
  802f74:	dec00304 	addi	sp,sp,12
  802f78:	f800283a 	ret

00802f7c <printf>:
  802f7c:	defffc04 	addi	sp,sp,-16
  802f80:	dfc00015 	stw	ra,0(sp)
  802f84:	d9400115 	stw	r5,4(sp)
  802f88:	d9800215 	stw	r6,8(sp)
  802f8c:	d9c00315 	stw	r7,12(sp)
  802f90:	008020b4 	movhi	r2,130
  802f94:	10ba8504 	addi	r2,r2,-5612
  802f98:	10800017 	ldw	r2,0(r2)
  802f9c:	200b883a 	mov	r5,r4
  802fa0:	d9800104 	addi	r6,sp,4
  802fa4:	11000217 	ldw	r4,8(r2)
  802fa8:	0806ff40 	call	806ff4 <__vfprintf_internal>
  802fac:	dfc00017 	ldw	ra,0(sp)
  802fb0:	dec00404 	addi	sp,sp,16
  802fb4:	f800283a 	ret

00802fb8 <_putchar_r>:
  802fb8:	21800217 	ldw	r6,8(r4)
  802fbc:	080a82c1 	jmpi	80a82c <_putc_r>

00802fc0 <putchar>:
  802fc0:	008020b4 	movhi	r2,130
  802fc4:	10ba8504 	addi	r2,r2,-5612
  802fc8:	200b883a 	mov	r5,r4
  802fcc:	11000017 	ldw	r4,0(r2)
  802fd0:	21800217 	ldw	r6,8(r4)
  802fd4:	080a82c1 	jmpi	80a82c <_putc_r>

00802fd8 <_puts_r>:
  802fd8:	defff604 	addi	sp,sp,-40
  802fdc:	dc000715 	stw	r16,28(sp)
  802fe0:	2021883a 	mov	r16,r4
  802fe4:	2809883a 	mov	r4,r5
  802fe8:	dc400815 	stw	r17,32(sp)
  802fec:	dfc00915 	stw	ra,36(sp)
  802ff0:	2823883a 	mov	r17,r5
  802ff4:	08035a80 	call	8035a8 <strlen>
  802ff8:	10c00044 	addi	r3,r2,1
  802ffc:	d8800115 	stw	r2,4(sp)
  803000:	008020b4 	movhi	r2,130
  803004:	10b15904 	addi	r2,r2,-15004
  803008:	d8800215 	stw	r2,8(sp)
  80300c:	00800044 	movi	r2,1
  803010:	d8800315 	stw	r2,12(sp)
  803014:	00800084 	movi	r2,2
  803018:	dc400015 	stw	r17,0(sp)
  80301c:	d8c00615 	stw	r3,24(sp)
  803020:	dec00415 	stw	sp,16(sp)
  803024:	d8800515 	stw	r2,20(sp)
  803028:	80000226 	beq	r16,zero,803034 <_puts_r+0x5c>
  80302c:	80800e17 	ldw	r2,56(r16)
  803030:	10001426 	beq	r2,zero,803084 <_puts_r+0xac>
  803034:	81400217 	ldw	r5,8(r16)
  803038:	2880030b 	ldhu	r2,12(r5)
  80303c:	10c8000c 	andi	r3,r2,8192
  803040:	1800061e 	bne	r3,zero,80305c <_puts_r+0x84>
  803044:	29001917 	ldw	r4,100(r5)
  803048:	00f7ffc4 	movi	r3,-8193
  80304c:	10880014 	ori	r2,r2,8192
  803050:	20c6703a 	and	r3,r4,r3
  803054:	2880030d 	sth	r2,12(r5)
  803058:	28c01915 	stw	r3,100(r5)
  80305c:	d9800404 	addi	r6,sp,16
  803060:	8009883a 	mov	r4,r16
  803064:	0808c080 	call	808c08 <__sfvwrite_r>
  803068:	1000091e 	bne	r2,zero,803090 <_puts_r+0xb8>
  80306c:	00800284 	movi	r2,10
  803070:	dfc00917 	ldw	ra,36(sp)
  803074:	dc400817 	ldw	r17,32(sp)
  803078:	dc000717 	ldw	r16,28(sp)
  80307c:	dec00a04 	addi	sp,sp,40
  803080:	f800283a 	ret
  803084:	8009883a 	mov	r4,r16
  803088:	08015c40 	call	8015c4 <__sinit>
  80308c:	003fe906 	br	803034 <__alt_data_end+0xff803034>
  803090:	00bfffc4 	movi	r2,-1
  803094:	003ff606 	br	803070 <__alt_data_end+0xff803070>

00803098 <puts>:
  803098:	008020b4 	movhi	r2,130
  80309c:	10ba8504 	addi	r2,r2,-5612
  8030a0:	200b883a 	mov	r5,r4
  8030a4:	11000017 	ldw	r4,0(r2)
  8030a8:	0802fd81 	jmpi	802fd8 <_puts_r>

008030ac <lflush>:
  8030ac:	2080030b 	ldhu	r2,12(r4)
  8030b0:	00c00244 	movi	r3,9
  8030b4:	1080024c 	andi	r2,r2,9
  8030b8:	10c00226 	beq	r2,r3,8030c4 <lflush+0x18>
  8030bc:	0005883a 	mov	r2,zero
  8030c0:	f800283a 	ret
  8030c4:	08012441 	jmpi	801244 <fflush>

008030c8 <__srefill_r>:
  8030c8:	defffc04 	addi	sp,sp,-16
  8030cc:	dc400115 	stw	r17,4(sp)
  8030d0:	dc000015 	stw	r16,0(sp)
  8030d4:	dfc00315 	stw	ra,12(sp)
  8030d8:	dc800215 	stw	r18,8(sp)
  8030dc:	2023883a 	mov	r17,r4
  8030e0:	2821883a 	mov	r16,r5
  8030e4:	20000226 	beq	r4,zero,8030f0 <__srefill_r+0x28>
  8030e8:	20800e17 	ldw	r2,56(r4)
  8030ec:	10003c26 	beq	r2,zero,8031e0 <__srefill_r+0x118>
  8030f0:	80c0030b 	ldhu	r3,12(r16)
  8030f4:	1908000c 	andi	r4,r3,8192
  8030f8:	1805883a 	mov	r2,r3
  8030fc:	2000071e 	bne	r4,zero,80311c <__srefill_r+0x54>
  803100:	81001917 	ldw	r4,100(r16)
  803104:	18880014 	ori	r2,r3,8192
  803108:	00f7ffc4 	movi	r3,-8193
  80310c:	20c8703a 	and	r4,r4,r3
  803110:	8080030d 	sth	r2,12(r16)
  803114:	1007883a 	mov	r3,r2
  803118:	81001915 	stw	r4,100(r16)
  80311c:	80000115 	stw	zero,4(r16)
  803120:	1100080c 	andi	r4,r2,32
  803124:	2000571e 	bne	r4,zero,803284 <__srefill_r+0x1bc>
  803128:	1100010c 	andi	r4,r2,4
  80312c:	20001f26 	beq	r4,zero,8031ac <__srefill_r+0xe4>
  803130:	81400c17 	ldw	r5,48(r16)
  803134:	28000826 	beq	r5,zero,803158 <__srefill_r+0x90>
  803138:	80801004 	addi	r2,r16,64
  80313c:	28800226 	beq	r5,r2,803148 <__srefill_r+0x80>
  803140:	8809883a 	mov	r4,r17
  803144:	08018900 	call	801890 <_free_r>
  803148:	80800f17 	ldw	r2,60(r16)
  80314c:	80000c15 	stw	zero,48(r16)
  803150:	80800115 	stw	r2,4(r16)
  803154:	1000391e 	bne	r2,zero,80323c <__srefill_r+0x174>
  803158:	80800417 	ldw	r2,16(r16)
  80315c:	10004b26 	beq	r2,zero,80328c <__srefill_r+0x1c4>
  803160:	8480030b 	ldhu	r18,12(r16)
  803164:	908000cc 	andi	r2,r18,3
  803168:	10001f1e 	bne	r2,zero,8031e8 <__srefill_r+0x120>
  80316c:	81800417 	ldw	r6,16(r16)
  803170:	80800817 	ldw	r2,32(r16)
  803174:	81c00517 	ldw	r7,20(r16)
  803178:	81400717 	ldw	r5,28(r16)
  80317c:	81800015 	stw	r6,0(r16)
  803180:	8809883a 	mov	r4,r17
  803184:	103ee83a 	callr	r2
  803188:	80800115 	stw	r2,4(r16)
  80318c:	00800e0e 	bge	zero,r2,8031c8 <__srefill_r+0x100>
  803190:	0005883a 	mov	r2,zero
  803194:	dfc00317 	ldw	ra,12(sp)
  803198:	dc800217 	ldw	r18,8(sp)
  80319c:	dc400117 	ldw	r17,4(sp)
  8031a0:	dc000017 	ldw	r16,0(sp)
  8031a4:	dec00404 	addi	sp,sp,16
  8031a8:	f800283a 	ret
  8031ac:	1100040c 	andi	r4,r2,16
  8031b0:	20003026 	beq	r4,zero,803274 <__srefill_r+0x1ac>
  8031b4:	1080020c 	andi	r2,r2,8
  8031b8:	1000241e 	bne	r2,zero,80324c <__srefill_r+0x184>
  8031bc:	18c00114 	ori	r3,r3,4
  8031c0:	80c0030d 	sth	r3,12(r16)
  8031c4:	003fe406 	br	803158 <__alt_data_end+0xff803158>
  8031c8:	80c0030b 	ldhu	r3,12(r16)
  8031cc:	1000161e 	bne	r2,zero,803228 <__srefill_r+0x160>
  8031d0:	18c00814 	ori	r3,r3,32
  8031d4:	00bfffc4 	movi	r2,-1
  8031d8:	80c0030d 	sth	r3,12(r16)
  8031dc:	003fed06 	br	803194 <__alt_data_end+0xff803194>
  8031e0:	08015c40 	call	8015c4 <__sinit>
  8031e4:	003fc206 	br	8030f0 <__alt_data_end+0xff8030f0>
  8031e8:	008020b4 	movhi	r2,130
  8031ec:	10ba8404 	addi	r2,r2,-5616
  8031f0:	11000017 	ldw	r4,0(r2)
  8031f4:	01402034 	movhi	r5,128
  8031f8:	00800044 	movi	r2,1
  8031fc:	294c2b04 	addi	r5,r5,12460
  803200:	8080030d 	sth	r2,12(r16)
  803204:	080207c0 	call	80207c <_fwalk>
  803208:	00800244 	movi	r2,9
  80320c:	8480030d 	sth	r18,12(r16)
  803210:	9480024c 	andi	r18,r18,9
  803214:	90bfd51e 	bne	r18,r2,80316c <__alt_data_end+0xff80316c>
  803218:	800b883a 	mov	r5,r16
  80321c:	8809883a 	mov	r4,r17
  803220:	0800fcc0 	call	800fcc <__sflush_r>
  803224:	003fd106 	br	80316c <__alt_data_end+0xff80316c>
  803228:	18c01014 	ori	r3,r3,64
  80322c:	80000115 	stw	zero,4(r16)
  803230:	00bfffc4 	movi	r2,-1
  803234:	80c0030d 	sth	r3,12(r16)
  803238:	003fd606 	br	803194 <__alt_data_end+0xff803194>
  80323c:	80c00e17 	ldw	r3,56(r16)
  803240:	0005883a 	mov	r2,zero
  803244:	80c00015 	stw	r3,0(r16)
  803248:	003fd206 	br	803194 <__alt_data_end+0xff803194>
  80324c:	800b883a 	mov	r5,r16
  803250:	8809883a 	mov	r4,r17
  803254:	08011e80 	call	8011e8 <_fflush_r>
  803258:	10000a1e 	bne	r2,zero,803284 <__srefill_r+0x1bc>
  80325c:	8080030b 	ldhu	r2,12(r16)
  803260:	00fffdc4 	movi	r3,-9
  803264:	80000215 	stw	zero,8(r16)
  803268:	1886703a 	and	r3,r3,r2
  80326c:	80000615 	stw	zero,24(r16)
  803270:	003fd206 	br	8031bc <__alt_data_end+0xff8031bc>
  803274:	00800244 	movi	r2,9
  803278:	88800015 	stw	r2,0(r17)
  80327c:	18c01014 	ori	r3,r3,64
  803280:	80c0030d 	sth	r3,12(r16)
  803284:	00bfffc4 	movi	r2,-1
  803288:	003fc206 	br	803194 <__alt_data_end+0xff803194>
  80328c:	800b883a 	mov	r5,r16
  803290:	8809883a 	mov	r4,r17
  803294:	08023fc0 	call	8023fc <__smakebuf_r>
  803298:	003fb106 	br	803160 <__alt_data_end+0xff803160>

0080329c <__srget_r>:
  80329c:	defffd04 	addi	sp,sp,-12
  8032a0:	dc400115 	stw	r17,4(sp)
  8032a4:	dc000015 	stw	r16,0(sp)
  8032a8:	dfc00215 	stw	ra,8(sp)
  8032ac:	2023883a 	mov	r17,r4
  8032b0:	2821883a 	mov	r16,r5
  8032b4:	20000226 	beq	r4,zero,8032c0 <__srget_r+0x24>
  8032b8:	20800e17 	ldw	r2,56(r4)
  8032bc:	10001026 	beq	r2,zero,803300 <__srget_r+0x64>
  8032c0:	800b883a 	mov	r5,r16
  8032c4:	8809883a 	mov	r4,r17
  8032c8:	08030c80 	call	8030c8 <__srefill_r>
  8032cc:	10000e1e 	bne	r2,zero,803308 <__srget_r+0x6c>
  8032d0:	80c00017 	ldw	r3,0(r16)
  8032d4:	80800117 	ldw	r2,4(r16)
  8032d8:	19000044 	addi	r4,r3,1
  8032dc:	10bfffc4 	addi	r2,r2,-1
  8032e0:	80800115 	stw	r2,4(r16)
  8032e4:	81000015 	stw	r4,0(r16)
  8032e8:	18800003 	ldbu	r2,0(r3)
  8032ec:	dfc00217 	ldw	ra,8(sp)
  8032f0:	dc400117 	ldw	r17,4(sp)
  8032f4:	dc000017 	ldw	r16,0(sp)
  8032f8:	dec00304 	addi	sp,sp,12
  8032fc:	f800283a 	ret
  803300:	08015c40 	call	8015c4 <__sinit>
  803304:	003fee06 	br	8032c0 <__alt_data_end+0xff8032c0>
  803308:	00bfffc4 	movi	r2,-1
  80330c:	003ff706 	br	8032ec <__alt_data_end+0xff8032ec>

00803310 <__srget>:
  803310:	008020b4 	movhi	r2,130
  803314:	10ba8504 	addi	r2,r2,-5612
  803318:	200b883a 	mov	r5,r4
  80331c:	11000017 	ldw	r4,0(r2)
  803320:	080329c1 	jmpi	80329c <__srget_r>

00803324 <_sbrk_r>:
  803324:	defffd04 	addi	sp,sp,-12
  803328:	dc000015 	stw	r16,0(sp)
  80332c:	040020b4 	movhi	r16,130
  803330:	dc400115 	stw	r17,4(sp)
  803334:	8401f004 	addi	r16,r16,1984
  803338:	2023883a 	mov	r17,r4
  80333c:	2809883a 	mov	r4,r5
  803340:	dfc00215 	stw	ra,8(sp)
  803344:	80000015 	stw	zero,0(r16)
  803348:	0818b840 	call	818b84 <sbrk>
  80334c:	00ffffc4 	movi	r3,-1
  803350:	10c00526 	beq	r2,r3,803368 <_sbrk_r+0x44>
  803354:	dfc00217 	ldw	ra,8(sp)
  803358:	dc400117 	ldw	r17,4(sp)
  80335c:	dc000017 	ldw	r16,0(sp)
  803360:	dec00304 	addi	sp,sp,12
  803364:	f800283a 	ret
  803368:	80c00017 	ldw	r3,0(r16)
  80336c:	183ff926 	beq	r3,zero,803354 <__alt_data_end+0xff803354>
  803370:	88c00015 	stw	r3,0(r17)
  803374:	003ff706 	br	803354 <__alt_data_end+0xff803354>

00803378 <sscanf>:
  803378:	deffe204 	addi	sp,sp,-120
  80337c:	dc001a15 	stw	r16,104(sp)
  803380:	2821883a 	mov	r16,r5
  803384:	dfc01b15 	stw	ra,108(sp)
  803388:	d9801c15 	stw	r6,112(sp)
  80338c:	d9c01d15 	stw	r7,116(sp)
  803390:	00c08104 	movi	r3,516
  803394:	d8c0030d 	sth	r3,12(sp)
  803398:	d9000015 	stw	r4,0(sp)
  80339c:	d9000415 	stw	r4,16(sp)
  8033a0:	08035a80 	call	8035a8 <strlen>
  8033a4:	00c020b4 	movhi	r3,130
  8033a8:	18fa8504 	addi	r3,r3,-5612
  8033ac:	d8800115 	stw	r2,4(sp)
  8033b0:	d8800515 	stw	r2,20(sp)
  8033b4:	19000017 	ldw	r4,0(r3)
  8033b8:	00802034 	movhi	r2,128
  8033bc:	108d3004 	addi	r2,r2,13504
  8033c0:	d8800815 	stw	r2,32(sp)
  8033c4:	d9c01c04 	addi	r7,sp,112
  8033c8:	800d883a 	mov	r6,r16
  8033cc:	d80b883a 	mov	r5,sp
  8033d0:	00bfffc4 	movi	r2,-1
  8033d4:	d8000c15 	stw	zero,48(sp)
  8033d8:	d8001115 	stw	zero,68(sp)
  8033dc:	d880038d 	sth	r2,14(sp)
  8033e0:	08036400 	call	803640 <__ssvfscanf_r>
  8033e4:	dfc01b17 	ldw	ra,108(sp)
  8033e8:	dc001a17 	ldw	r16,104(sp)
  8033ec:	dec01e04 	addi	sp,sp,120
  8033f0:	f800283a 	ret

008033f4 <_sscanf_r>:
  8033f4:	deffe204 	addi	sp,sp,-120
  8033f8:	dc001b15 	stw	r16,108(sp)
  8033fc:	2021883a 	mov	r16,r4
  803400:	dfc01c15 	stw	ra,112(sp)
  803404:	d9c01d15 	stw	r7,116(sp)
  803408:	00808104 	movi	r2,516
  80340c:	2809883a 	mov	r4,r5
  803410:	d9400015 	stw	r5,0(sp)
  803414:	d9400415 	stw	r5,16(sp)
  803418:	d9801a15 	stw	r6,104(sp)
  80341c:	d880030d 	sth	r2,12(sp)
  803420:	08035a80 	call	8035a8 <strlen>
  803424:	d8800115 	stw	r2,4(sp)
  803428:	d8800515 	stw	r2,20(sp)
  80342c:	d9801a17 	ldw	r6,104(sp)
  803430:	00802034 	movhi	r2,128
  803434:	108d3004 	addi	r2,r2,13504
  803438:	d8800815 	stw	r2,32(sp)
  80343c:	d9c01d04 	addi	r7,sp,116
  803440:	d80b883a 	mov	r5,sp
  803444:	8009883a 	mov	r4,r16
  803448:	00bfffc4 	movi	r2,-1
  80344c:	d8000c15 	stw	zero,48(sp)
  803450:	d8001115 	stw	zero,68(sp)
  803454:	d880038d 	sth	r2,14(sp)
  803458:	08036400 	call	803640 <__ssvfscanf_r>
  80345c:	dfc01c17 	ldw	ra,112(sp)
  803460:	dc001b17 	ldw	r16,108(sp)
  803464:	dec01e04 	addi	sp,sp,120
  803468:	f800283a 	ret

0080346c <__sread>:
  80346c:	defffe04 	addi	sp,sp,-8
  803470:	dc000015 	stw	r16,0(sp)
  803474:	2821883a 	mov	r16,r5
  803478:	2940038f 	ldh	r5,14(r5)
  80347c:	dfc00115 	stw	ra,4(sp)
  803480:	080a9940 	call	80a994 <_read_r>
  803484:	10000716 	blt	r2,zero,8034a4 <__sread+0x38>
  803488:	80c01417 	ldw	r3,80(r16)
  80348c:	1887883a 	add	r3,r3,r2
  803490:	80c01415 	stw	r3,80(r16)
  803494:	dfc00117 	ldw	ra,4(sp)
  803498:	dc000017 	ldw	r16,0(sp)
  80349c:	dec00204 	addi	sp,sp,8
  8034a0:	f800283a 	ret
  8034a4:	80c0030b 	ldhu	r3,12(r16)
  8034a8:	18fbffcc 	andi	r3,r3,61439
  8034ac:	80c0030d 	sth	r3,12(r16)
  8034b0:	dfc00117 	ldw	ra,4(sp)
  8034b4:	dc000017 	ldw	r16,0(sp)
  8034b8:	dec00204 	addi	sp,sp,8
  8034bc:	f800283a 	ret

008034c0 <__seofread>:
  8034c0:	0005883a 	mov	r2,zero
  8034c4:	f800283a 	ret

008034c8 <__swrite>:
  8034c8:	2880030b 	ldhu	r2,12(r5)
  8034cc:	defffb04 	addi	sp,sp,-20
  8034d0:	dcc00315 	stw	r19,12(sp)
  8034d4:	dc800215 	stw	r18,8(sp)
  8034d8:	dc400115 	stw	r17,4(sp)
  8034dc:	dc000015 	stw	r16,0(sp)
  8034e0:	dfc00415 	stw	ra,16(sp)
  8034e4:	10c0400c 	andi	r3,r2,256
  8034e8:	2821883a 	mov	r16,r5
  8034ec:	2023883a 	mov	r17,r4
  8034f0:	3025883a 	mov	r18,r6
  8034f4:	3827883a 	mov	r19,r7
  8034f8:	18000526 	beq	r3,zero,803510 <__swrite+0x48>
  8034fc:	2940038f 	ldh	r5,14(r5)
  803500:	01c00084 	movi	r7,2
  803504:	000d883a 	mov	r6,zero
  803508:	08092240 	call	809224 <_lseek_r>
  80350c:	8080030b 	ldhu	r2,12(r16)
  803510:	8140038f 	ldh	r5,14(r16)
  803514:	10bbffcc 	andi	r2,r2,61439
  803518:	980f883a 	mov	r7,r19
  80351c:	900d883a 	mov	r6,r18
  803520:	8809883a 	mov	r4,r17
  803524:	8080030d 	sth	r2,12(r16)
  803528:	dfc00417 	ldw	ra,16(sp)
  80352c:	dcc00317 	ldw	r19,12(sp)
  803530:	dc800217 	ldw	r18,8(sp)
  803534:	dc400117 	ldw	r17,4(sp)
  803538:	dc000017 	ldw	r16,0(sp)
  80353c:	dec00504 	addi	sp,sp,20
  803540:	08070cc1 	jmpi	8070cc <_write_r>

00803544 <__sseek>:
  803544:	defffe04 	addi	sp,sp,-8
  803548:	dc000015 	stw	r16,0(sp)
  80354c:	2821883a 	mov	r16,r5
  803550:	2940038f 	ldh	r5,14(r5)
  803554:	dfc00115 	stw	ra,4(sp)
  803558:	08092240 	call	809224 <_lseek_r>
  80355c:	00ffffc4 	movi	r3,-1
  803560:	10c00826 	beq	r2,r3,803584 <__sseek+0x40>
  803564:	80c0030b 	ldhu	r3,12(r16)
  803568:	80801415 	stw	r2,80(r16)
  80356c:	18c40014 	ori	r3,r3,4096
  803570:	80c0030d 	sth	r3,12(r16)
  803574:	dfc00117 	ldw	ra,4(sp)
  803578:	dc000017 	ldw	r16,0(sp)
  80357c:	dec00204 	addi	sp,sp,8
  803580:	f800283a 	ret
  803584:	80c0030b 	ldhu	r3,12(r16)
  803588:	18fbffcc 	andi	r3,r3,61439
  80358c:	80c0030d 	sth	r3,12(r16)
  803590:	dfc00117 	ldw	ra,4(sp)
  803594:	dc000017 	ldw	r16,0(sp)
  803598:	dec00204 	addi	sp,sp,8
  80359c:	f800283a 	ret

008035a0 <__sclose>:
  8035a0:	2940038f 	ldh	r5,14(r5)
  8035a4:	08072801 	jmpi	807280 <_close_r>

008035a8 <strlen>:
  8035a8:	208000cc 	andi	r2,r4,3
  8035ac:	10002026 	beq	r2,zero,803630 <strlen+0x88>
  8035b0:	20800007 	ldb	r2,0(r4)
  8035b4:	10002026 	beq	r2,zero,803638 <strlen+0x90>
  8035b8:	2005883a 	mov	r2,r4
  8035bc:	00000206 	br	8035c8 <strlen+0x20>
  8035c0:	10c00007 	ldb	r3,0(r2)
  8035c4:	18001826 	beq	r3,zero,803628 <strlen+0x80>
  8035c8:	10800044 	addi	r2,r2,1
  8035cc:	10c000cc 	andi	r3,r2,3
  8035d0:	183ffb1e 	bne	r3,zero,8035c0 <__alt_data_end+0xff8035c0>
  8035d4:	10c00017 	ldw	r3,0(r2)
  8035d8:	01ffbff4 	movhi	r7,65279
  8035dc:	39ffbfc4 	addi	r7,r7,-257
  8035e0:	00ca303a 	nor	r5,zero,r3
  8035e4:	01a02074 	movhi	r6,32897
  8035e8:	19c7883a 	add	r3,r3,r7
  8035ec:	31a02004 	addi	r6,r6,-32640
  8035f0:	1946703a 	and	r3,r3,r5
  8035f4:	1986703a 	and	r3,r3,r6
  8035f8:	1800091e 	bne	r3,zero,803620 <strlen+0x78>
  8035fc:	10800104 	addi	r2,r2,4
  803600:	10c00017 	ldw	r3,0(r2)
  803604:	19cb883a 	add	r5,r3,r7
  803608:	00c6303a 	nor	r3,zero,r3
  80360c:	28c6703a 	and	r3,r5,r3
  803610:	1986703a 	and	r3,r3,r6
  803614:	183ff926 	beq	r3,zero,8035fc <__alt_data_end+0xff8035fc>
  803618:	00000106 	br	803620 <strlen+0x78>
  80361c:	10800044 	addi	r2,r2,1
  803620:	10c00007 	ldb	r3,0(r2)
  803624:	183ffd1e 	bne	r3,zero,80361c <__alt_data_end+0xff80361c>
  803628:	1105c83a 	sub	r2,r2,r4
  80362c:	f800283a 	ret
  803630:	2005883a 	mov	r2,r4
  803634:	003fe706 	br	8035d4 <__alt_data_end+0xff8035d4>
  803638:	0005883a 	mov	r2,zero
  80363c:	f800283a 	ret

00803640 <__ssvfscanf_r>:
  803640:	2880030b 	ldhu	r2,12(r5)
  803644:	deff4b04 	addi	sp,sp,-724
  803648:	df00b315 	stw	fp,716(sp)
  80364c:	dd80b115 	stw	r22,708(sp)
  803650:	dfc0b415 	stw	ra,720(sp)
  803654:	ddc0b215 	stw	r23,712(sp)
  803658:	dd40b015 	stw	r21,704(sp)
  80365c:	dd00af15 	stw	r20,700(sp)
  803660:	dcc0ae15 	stw	r19,696(sp)
  803664:	dc80ad15 	stw	r18,692(sp)
  803668:	dc40ac15 	stw	r17,688(sp)
  80366c:	dc00ab15 	stw	r16,684(sp)
  803670:	10c8000c 	andi	r3,r2,8192
  803674:	d9c09c15 	stw	r7,624(sp)
  803678:	2839883a 	mov	fp,r5
  80367c:	202d883a 	mov	r22,r4
  803680:	1800061e 	bne	r3,zero,80369c <__ssvfscanf_r+0x5c>
  803684:	29001917 	ldw	r4,100(r5)
  803688:	00f7ffc4 	movi	r3,-8193
  80368c:	10880014 	ori	r2,r2,8192
  803690:	20c6703a 	and	r3,r4,r3
  803694:	2880030d 	sth	r2,12(r5)
  803698:	28c01915 	stw	r3,100(r5)
  80369c:	30800003 	ldbu	r2,0(r6)
  8036a0:	0021883a 	mov	r16,zero
  8036a4:	05c020b4 	movhi	r23,130
  8036a8:	d800a115 	stw	zero,644(sp)
  8036ac:	d8009e15 	stw	zero,632(sp)
  8036b0:	d800a015 	stw	zero,640(sp)
  8036b4:	d8809b15 	stw	r2,620(sp)
  8036b8:	bdfa8804 	addi	r23,r23,-5600
  8036bc:	8025883a 	mov	r18,r16
  8036c0:	35000044 	addi	r20,r6,1
  8036c4:	10001e26 	beq	r2,zero,803740 <__ssvfscanf_r+0x100>
  8036c8:	b9c00017 	ldw	r7,0(r23)
  8036cc:	3887883a 	add	r3,r7,r2
  8036d0:	18c00043 	ldbu	r3,1(r3)
  8036d4:	18c0020c 	andi	r3,r3,8
  8036d8:	18001b26 	beq	r3,zero,803748 <__ssvfscanf_r+0x108>
  8036dc:	e0800117 	ldw	r2,4(fp)
  8036e0:	00800e0e 	bge	zero,r2,80371c <__ssvfscanf_r+0xdc>
  8036e4:	e0c00017 	ldw	r3,0(fp)
  8036e8:	b9000017 	ldw	r4,0(r23)
  8036ec:	18800003 	ldbu	r2,0(r3)
  8036f0:	2085883a 	add	r2,r4,r2
  8036f4:	10800043 	ldbu	r2,1(r2)
  8036f8:	1080020c 	andi	r2,r2,8
  8036fc:	10000b26 	beq	r2,zero,80372c <__ssvfscanf_r+0xec>
  803700:	e0800117 	ldw	r2,4(fp)
  803704:	18c00044 	addi	r3,r3,1
  803708:	e0c00015 	stw	r3,0(fp)
  80370c:	10bfffc4 	addi	r2,r2,-1
  803710:	e0800115 	stw	r2,4(fp)
  803714:	94800044 	addi	r18,r18,1
  803718:	00bff216 	blt	zero,r2,8036e4 <__alt_data_end+0xff8036e4>
  80371c:	e00b883a 	mov	r5,fp
  803720:	b009883a 	mov	r4,r22
  803724:	080d5a00 	call	80d5a0 <__ssrefill_r>
  803728:	103fee26 	beq	r2,zero,8036e4 <__alt_data_end+0xff8036e4>
  80372c:	a00d883a 	mov	r6,r20
  803730:	30800003 	ldbu	r2,0(r6)
  803734:	35000044 	addi	r20,r6,1
  803738:	d8809b15 	stw	r2,620(sp)
  80373c:	103fe21e 	bne	r2,zero,8036c8 <__alt_data_end+0xff8036c8>
  803740:	d880a017 	ldw	r2,640(sp)
  803744:	00009906 	br	8039ac <__ssvfscanf_r+0x36c>
  803748:	00c00944 	movi	r3,37
  80374c:	10c0881e 	bne	r2,r3,803970 <__ssvfscanf_r+0x330>
  803750:	30c00043 	ldbu	r3,1(r6)
  803754:	0023883a 	mov	r17,zero
  803758:	0027883a 	mov	r19,zero
  80375c:	01001e04 	movi	r4,120
  803760:	01401b04 	movi	r5,108
  803764:	a1800044 	addi	r6,r20,1
  803768:	20c0a236 	bltu	r4,r3,8039f4 <__ssvfscanf_r+0x3b4>
  80376c:	180490ba 	slli	r2,r3,2
  803770:	02002034 	movhi	r8,128
  803774:	420de104 	addi	r8,r8,14212
  803778:	1205883a 	add	r2,r2,r8
  80377c:	10800017 	ldw	r2,0(r2)
  803780:	1000683a 	jmp	r2
  803784:	008039a8 	cmpgeui	r2,zero,230
  803788:	008039f4 	movhi	r2,231
  80378c:	008039f4 	movhi	r2,231
  803790:	008039f4 	movhi	r2,231
  803794:	008039f4 	movhi	r2,231
  803798:	008039f4 	movhi	r2,231
  80379c:	008039f4 	movhi	r2,231
  8037a0:	008039f4 	movhi	r2,231
  8037a4:	008039f4 	movhi	r2,231
  8037a8:	008039f4 	movhi	r2,231
  8037ac:	008039f4 	movhi	r2,231
  8037b0:	008039f4 	movhi	r2,231
  8037b4:	008039f4 	movhi	r2,231
  8037b8:	008039f4 	movhi	r2,231
  8037bc:	008039f4 	movhi	r2,231
  8037c0:	008039f4 	movhi	r2,231
  8037c4:	008039f4 	movhi	r2,231
  8037c8:	008039f4 	movhi	r2,231
  8037cc:	008039f4 	movhi	r2,231
  8037d0:	008039f4 	movhi	r2,231
  8037d4:	008039f4 	movhi	r2,231
  8037d8:	008039f4 	movhi	r2,231
  8037dc:	008039f4 	movhi	r2,231
  8037e0:	008039f4 	movhi	r2,231
  8037e4:	008039f4 	movhi	r2,231
  8037e8:	008039f4 	movhi	r2,231
  8037ec:	008039f4 	movhi	r2,231
  8037f0:	008039f4 	movhi	r2,231
  8037f4:	008039f4 	movhi	r2,231
  8037f8:	008039f4 	movhi	r2,231
  8037fc:	008039f4 	movhi	r2,231
  803800:	008039f4 	movhi	r2,231
  803804:	008039f4 	movhi	r2,231
  803808:	008039f4 	movhi	r2,231
  80380c:	008039f4 	movhi	r2,231
  803810:	008039f4 	movhi	r2,231
  803814:	008039f4 	movhi	r2,231
  803818:	00803968 	cmpgeui	r2,zero,229
  80381c:	008039f4 	movhi	r2,231
  803820:	008039f4 	movhi	r2,231
  803824:	008039f4 	movhi	r2,231
  803828:	008039f4 	movhi	r2,231
  80382c:	008039dc 	xori	r2,zero,231
  803830:	008039f4 	movhi	r2,231
  803834:	008039f4 	movhi	r2,231
  803838:	008039f4 	movhi	r2,231
  80383c:	008039f4 	movhi	r2,231
  803840:	008039f4 	movhi	r2,231
  803844:	00803b10 	cmplti	r2,zero,236
  803848:	00803b10 	cmplti	r2,zero,236
  80384c:	00803b10 	cmplti	r2,zero,236
  803850:	00803b10 	cmplti	r2,zero,236
  803854:	00803b10 	cmplti	r2,zero,236
  803858:	00803b10 	cmplti	r2,zero,236
  80385c:	00803b10 	cmplti	r2,zero,236
  803860:	00803b10 	cmplti	r2,zero,236
  803864:	00803b10 	cmplti	r2,zero,236
  803868:	00803b10 	cmplti	r2,zero,236
  80386c:	008039f4 	movhi	r2,231
  803870:	008039f4 	movhi	r2,231
  803874:	008039f4 	movhi	r2,231
  803878:	008039f4 	movhi	r2,231
  80387c:	008039f4 	movhi	r2,231
  803880:	008039f4 	movhi	r2,231
  803884:	008039f4 	movhi	r2,231
  803888:	008039f4 	movhi	r2,231
  80388c:	008039f4 	movhi	r2,231
  803890:	008039f4 	movhi	r2,231
  803894:	00803ae4 	muli	r2,zero,235
  803898:	00803b94 	movui	r2,238
  80389c:	008039f4 	movhi	r2,231
  8038a0:	00803b94 	movui	r2,238
  8038a4:	008039f4 	movhi	r2,231
  8038a8:	008039f4 	movhi	r2,231
  8038ac:	008039f4 	movhi	r2,231
  8038b0:	008039f4 	movhi	r2,231
  8038b4:	00803b80 	call	803b8 <__alt_mem_sdram_0-0x77fc48>
  8038b8:	008039f4 	movhi	r2,231
  8038bc:	008039f4 	movhi	r2,231
  8038c0:	00803b54 	movui	r2,237
  8038c4:	008039f4 	movhi	r2,231
  8038c8:	008039f4 	movhi	r2,231
  8038cc:	008039f4 	movhi	r2,231
  8038d0:	008039f4 	movhi	r2,231
  8038d4:	008039f4 	movhi	r2,231
  8038d8:	008039f4 	movhi	r2,231
  8038dc:	008039f4 	movhi	r2,231
  8038e0:	008039f4 	movhi	r2,231
  8038e4:	00803b2c 	andhi	r2,zero,236
  8038e8:	008039f4 	movhi	r2,231
  8038ec:	008039f4 	movhi	r2,231
  8038f0:	00803cc8 	cmpgei	r2,zero,243
  8038f4:	008039f4 	movhi	r2,231
  8038f8:	008039f4 	movhi	r2,231
  8038fc:	008039f4 	movhi	r2,231
  803900:	008039f4 	movhi	r2,231
  803904:	008039f4 	movhi	r2,231
  803908:	008039f4 	movhi	r2,231
  80390c:	008039f4 	movhi	r2,231
  803910:	00803c4c 	andi	r2,zero,241
  803914:	00803c24 	muli	r2,zero,240
  803918:	00803b94 	movui	r2,238
  80391c:	00803b94 	movui	r2,238
  803920:	00803b94 	movui	r2,238
  803924:	00803c10 	cmplti	r2,zero,240
  803928:	00803d54 	movui	r2,245
  80392c:	008039f4 	movhi	r2,231
  803930:	008039f4 	movhi	r2,231
  803934:	00803bfc 	xorhi	r2,zero,239
  803938:	008039f4 	movhi	r2,231
  80393c:	00803bcc 	andi	r2,zero,239
  803940:	00803ba8 	cmpgeui	r2,zero,238
  803944:	00803ab8 	rdprs	r2,zero,234
  803948:	008039f4 	movhi	r2,231
  80394c:	008039f4 	movhi	r2,231
  803950:	00803aa4 	muli	r2,zero,234
  803954:	008039f4 	movhi	r2,231
  803958:	00803a2c 	andhi	r2,zero,232
  80395c:	008039f4 	movhi	r2,231
  803960:	008039f4 	movhi	r2,231
  803964:	00803b2c 	andhi	r2,zero,236
  803968:	d9809d15 	stw	r6,628(sp)
  80396c:	3029883a 	mov	r20,r6
  803970:	e0800117 	ldw	r2,4(fp)
  803974:	0081aa0e 	bge	zero,r2,804020 <__ssvfscanf_r+0x9e0>
  803978:	e0800017 	ldw	r2,0(fp)
  80397c:	a0ffffc3 	ldbu	r3,-1(r20)
  803980:	11000003 	ldbu	r4,0(r2)
  803984:	20ff6e1e 	bne	r4,r3,803740 <__alt_data_end+0xff803740>
  803988:	e0c00117 	ldw	r3,4(fp)
  80398c:	10800044 	addi	r2,r2,1
  803990:	e0800015 	stw	r2,0(fp)
  803994:	18bfffc4 	addi	r2,r3,-1
  803998:	e0800115 	stw	r2,4(fp)
  80399c:	94800044 	addi	r18,r18,1
  8039a0:	a00d883a 	mov	r6,r20
  8039a4:	003f6206 	br	803730 <__alt_data_end+0xff803730>
  8039a8:	00bfffc4 	movi	r2,-1
  8039ac:	dfc0b417 	ldw	ra,720(sp)
  8039b0:	df00b317 	ldw	fp,716(sp)
  8039b4:	ddc0b217 	ldw	r23,712(sp)
  8039b8:	dd80b117 	ldw	r22,708(sp)
  8039bc:	dd40b017 	ldw	r21,704(sp)
  8039c0:	dd00af17 	ldw	r20,700(sp)
  8039c4:	dcc0ae17 	ldw	r19,696(sp)
  8039c8:	dc80ad17 	ldw	r18,692(sp)
  8039cc:	dc40ac17 	ldw	r17,688(sp)
  8039d0:	dc00ab17 	ldw	r16,684(sp)
  8039d4:	dec0b504 	addi	sp,sp,724
  8039d8:	f800283a 	ret
  8039dc:	a0800043 	ldbu	r2,1(r20)
  8039e0:	3029883a 	mov	r20,r6
  8039e4:	8c400414 	ori	r17,r17,16
  8039e8:	10c03fcc 	andi	r3,r2,255
  8039ec:	a1800044 	addi	r6,r20,1
  8039f0:	20ff5e2e 	bgeu	r4,r3,80376c <__alt_data_end+0xff80376c>
  8039f4:	38c7883a 	add	r3,r7,r3
  8039f8:	18800043 	ldbu	r2,1(r3)
  8039fc:	d9809d15 	stw	r6,628(sp)
  803a00:	00c00044 	movi	r3,1
  803a04:	108000cc 	andi	r2,r2,3
  803a08:	10c18f26 	beq	r2,r3,804048 <__ssvfscanf_r+0xa08>
  803a0c:	e0800117 	ldw	r2,4(fp)
  803a10:	00808716 	blt	zero,r2,803c30 <__ssvfscanf_r+0x5f0>
  803a14:	e00b883a 	mov	r5,fp
  803a18:	b009883a 	mov	r4,r22
  803a1c:	080d5a00 	call	80d5a0 <__ssrefill_r>
  803a20:	1001431e 	bne	r2,zero,803f30 <__ssvfscanf_r+0x8f0>
  803a24:	b9c00017 	ldw	r7,0(r23)
  803a28:	00008106 	br	803c30 <__ssvfscanf_r+0x5f0>
  803a2c:	e0800117 	ldw	r2,4(fp)
  803a30:	d9809d15 	stw	r6,628(sp)
  803a34:	0081a30e 	bge	zero,r2,8040c4 <__ssvfscanf_r+0xa84>
  803a38:	00802074 	movhi	r2,129
  803a3c:	10b3c404 	addi	r2,r2,-12528
  803a40:	02000284 	movi	r8,10
  803a44:	d880a115 	stw	r2,644(sp)
  803a48:	da009e15 	stw	r8,632(sp)
  803a4c:	050000c4 	movi	r20,3
  803a50:	e0c00017 	ldw	r3,0(fp)
  803a54:	00000206 	br	803a60 <__ssvfscanf_r+0x420>
  803a58:	18c00044 	addi	r3,r3,1
  803a5c:	e0c00015 	stw	r3,0(fp)
  803a60:	19000003 	ldbu	r4,0(r3)
  803a64:	20803fcc 	andi	r2,r4,255
  803a68:	3885883a 	add	r2,r7,r2
  803a6c:	10800043 	ldbu	r2,1(r2)
  803a70:	1140020c 	andi	r5,r2,8
  803a74:	2801ab26 	beq	r5,zero,804124 <__ssvfscanf_r+0xae4>
  803a78:	e0800117 	ldw	r2,4(fp)
  803a7c:	94800044 	addi	r18,r18,1
  803a80:	10bfffc4 	addi	r2,r2,-1
  803a84:	e0800115 	stw	r2,4(fp)
  803a88:	00bff316 	blt	zero,r2,803a58 <__alt_data_end+0xff803a58>
  803a8c:	e00b883a 	mov	r5,fp
  803a90:	b009883a 	mov	r4,r22
  803a94:	080d5a00 	call	80d5a0 <__ssrefill_r>
  803a98:	1001251e 	bne	r2,zero,803f30 <__ssvfscanf_r+0x8f0>
  803a9c:	b9c00017 	ldw	r7,0(r23)
  803aa0:	003feb06 	br	803a50 <__alt_data_end+0xff803a50>
  803aa4:	e0800117 	ldw	r2,4(fp)
  803aa8:	d9809d15 	stw	r6,628(sp)
  803aac:	00818b0e 	bge	zero,r2,8040dc <__ssvfscanf_r+0xa9c>
  803ab0:	05000084 	movi	r20,2
  803ab4:	003fe606 	br	803a50 <__alt_data_end+0xff803a50>
  803ab8:	e0800117 	ldw	r2,4(fp)
  803abc:	d9809d15 	stw	r6,628(sp)
  803ac0:	8c408814 	ori	r17,r17,544
  803ac4:	00801d0e 	bge	zero,r2,803b3c <__ssvfscanf_r+0x4fc>
  803ac8:	00802074 	movhi	r2,129
  803acc:	10b3c404 	addi	r2,r2,-12528
  803ad0:	02000404 	movi	r8,16
  803ad4:	d880a115 	stw	r2,644(sp)
  803ad8:	da009e15 	stw	r8,632(sp)
  803adc:	050000c4 	movi	r20,3
  803ae0:	003fdb06 	br	803a50 <__alt_data_end+0xff803a50>
  803ae4:	e0800117 	ldw	r2,4(fp)
  803ae8:	d9809d15 	stw	r6,628(sp)
  803aec:	8c400054 	ori	r17,r17,1
  803af0:	00bfc80e 	bge	zero,r2,803a14 <__alt_data_end+0xff803a14>
  803af4:	00c02074 	movhi	r3,129
  803af8:	18f26e04 	addi	r3,r3,-13896
  803afc:	02000284 	movi	r8,10
  803b00:	d8c0a115 	stw	r3,644(sp)
  803b04:	da009e15 	stw	r8,632(sp)
  803b08:	050000c4 	movi	r20,3
  803b0c:	003fd006 	br	803a50 <__alt_data_end+0xff803a50>
  803b10:	9cc002a4 	muli	r19,r19,10
  803b14:	a0800043 	ldbu	r2,1(r20)
  803b18:	3029883a 	mov	r20,r6
  803b1c:	98e7883a 	add	r19,r19,r3
  803b20:	9cfff404 	addi	r19,r19,-48
  803b24:	10c03fcc 	andi	r3,r2,255
  803b28:	003f0e06 	br	803764 <__alt_data_end+0xff803764>
  803b2c:	e0800117 	ldw	r2,4(fp)
  803b30:	d9809d15 	stw	r6,628(sp)
  803b34:	8c408014 	ori	r17,r17,512
  803b38:	00bfe316 	blt	zero,r2,803ac8 <__alt_data_end+0xff803ac8>
  803b3c:	e00b883a 	mov	r5,fp
  803b40:	b009883a 	mov	r4,r22
  803b44:	080d5a00 	call	80d5a0 <__ssrefill_r>
  803b48:	1000f91e 	bne	r2,zero,803f30 <__ssvfscanf_r+0x8f0>
  803b4c:	b9c00017 	ldw	r7,0(r23)
  803b50:	003fdd06 	br	803ac8 <__alt_data_end+0xff803ac8>
  803b54:	e0800117 	ldw	r2,4(fp)
  803b58:	d9809d15 	stw	r6,628(sp)
  803b5c:	8c400054 	ori	r17,r17,1
  803b60:	0080140e 	bge	zero,r2,803bb4 <__ssvfscanf_r+0x574>
  803b64:	00802074 	movhi	r2,129
  803b68:	10b3c404 	addi	r2,r2,-12528
  803b6c:	02000204 	movi	r8,8
  803b70:	d880a115 	stw	r2,644(sp)
  803b74:	da009e15 	stw	r8,632(sp)
  803b78:	050000c4 	movi	r20,3
  803b7c:	003fb406 	br	803a50 <__alt_data_end+0xff803a50>
  803b80:	a0800043 	ldbu	r2,1(r20)
  803b84:	8c400094 	ori	r17,r17,2
  803b88:	3029883a 	mov	r20,r6
  803b8c:	10c03fcc 	andi	r3,r2,255
  803b90:	003ef406 	br	803764 <__alt_data_end+0xff803764>
  803b94:	e0800117 	ldw	r2,4(fp)
  803b98:	d9809d15 	stw	r6,628(sp)
  803b9c:	0081420e 	bge	zero,r2,8040a8 <__ssvfscanf_r+0xa68>
  803ba0:	05000104 	movi	r20,4
  803ba4:	003faa06 	br	803a50 <__alt_data_end+0xff803a50>
  803ba8:	e0800117 	ldw	r2,4(fp)
  803bac:	d9809d15 	stw	r6,628(sp)
  803bb0:	00bfec16 	blt	zero,r2,803b64 <__alt_data_end+0xff803b64>
  803bb4:	e00b883a 	mov	r5,fp
  803bb8:	b009883a 	mov	r4,r22
  803bbc:	080d5a00 	call	80d5a0 <__ssrefill_r>
  803bc0:	1000db1e 	bne	r2,zero,803f30 <__ssvfscanf_r+0x8f0>
  803bc4:	b9c00017 	ldw	r7,0(r23)
  803bc8:	003fe606 	br	803b64 <__alt_data_end+0xff803b64>
  803bcc:	d9809d15 	stw	r6,628(sp)
  803bd0:	8880040c 	andi	r2,r17,16
  803bd4:	10009c1e 	bne	r2,zero,803e48 <__ssvfscanf_r+0x808>
  803bd8:	8880010c 	andi	r2,r17,4
  803bdc:	10011e26 	beq	r2,zero,804058 <__ssvfscanf_r+0xa18>
  803be0:	da009c17 	ldw	r8,624(sp)
  803be4:	3029883a 	mov	r20,r6
  803be8:	40800017 	ldw	r2,0(r8)
  803bec:	42000104 	addi	r8,r8,4
  803bf0:	da009c15 	stw	r8,624(sp)
  803bf4:	1480000d 	sth	r18,0(r2)
  803bf8:	003ecc06 	br	80372c <__alt_data_end+0xff80372c>
  803bfc:	a0c00043 	ldbu	r3,1(r20)
  803c00:	19410c26 	beq	r3,r5,804034 <__ssvfscanf_r+0x9f4>
  803c04:	8c400054 	ori	r17,r17,1
  803c08:	3029883a 	mov	r20,r6
  803c0c:	003ed506 	br	803764 <__alt_data_end+0xff803764>
  803c10:	a0800043 	ldbu	r2,1(r20)
  803c14:	8c400114 	ori	r17,r17,4
  803c18:	3029883a 	mov	r20,r6
  803c1c:	10c03fcc 	andi	r3,r2,255
  803c20:	003ed006 	br	803764 <__alt_data_end+0xff803764>
  803c24:	e0800117 	ldw	r2,4(fp)
  803c28:	d9809d15 	stw	r6,628(sp)
  803c2c:	00bf790e 	bge	zero,r2,803a14 <__alt_data_end+0xff803a14>
  803c30:	00802074 	movhi	r2,129
  803c34:	10b26e04 	addi	r2,r2,-13896
  803c38:	02000284 	movi	r8,10
  803c3c:	d880a115 	stw	r2,644(sp)
  803c40:	da009e15 	stw	r8,632(sp)
  803c44:	050000c4 	movi	r20,3
  803c48:	003f8106 	br	803a50 <__alt_data_end+0xff803a50>
  803c4c:	e0800117 	ldw	r2,4(fp)
  803c50:	d9809d15 	stw	r6,628(sp)
  803c54:	0080c40e 	bge	zero,r2,803f68 <__ssvfscanf_r+0x928>
  803c58:	9800011e 	bne	r19,zero,803c60 <__ssvfscanf_r+0x620>
  803c5c:	04c00044 	movi	r19,1
  803c60:	8880004c 	andi	r2,r17,1
  803c64:	1000441e 	bne	r2,zero,803d78 <__ssvfscanf_r+0x738>
  803c68:	8c40040c 	andi	r17,r17,16
  803c6c:	8800da26 	beq	r17,zero,803fd8 <__ssvfscanf_r+0x998>
  803c70:	0021883a 	mov	r16,zero
  803c74:	00000806 	br	803c98 <__ssvfscanf_r+0x658>
  803c78:	1887883a 	add	r3,r3,r2
  803c7c:	e00b883a 	mov	r5,fp
  803c80:	b009883a 	mov	r4,r22
  803c84:	e0c00015 	stw	r3,0(fp)
  803c88:	80a1883a 	add	r16,r16,r2
  803c8c:	98a7c83a 	sub	r19,r19,r2
  803c90:	080d5a00 	call	80d5a0 <__ssrefill_r>
  803c94:	1000ca1e 	bne	r2,zero,803fc0 <__ssvfscanf_r+0x980>
  803c98:	e0800117 	ldw	r2,4(fp)
  803c9c:	e0c00017 	ldw	r3,0(fp)
  803ca0:	14fff516 	blt	r2,r19,803c78 <__alt_data_end+0xff803c78>
  803ca4:	14c5c83a 	sub	r2,r2,r19
  803ca8:	1cd5883a 	add	r10,r3,r19
  803cac:	84e1883a 	add	r16,r16,r19
  803cb0:	e0800115 	stw	r2,4(fp)
  803cb4:	e2800015 	stw	r10,0(fp)
  803cb8:	dd009d17 	ldw	r20,628(sp)
  803cbc:	9425883a 	add	r18,r18,r16
  803cc0:	a00d883a 	mov	r6,r20
  803cc4:	003e9a06 	br	803730 <__alt_data_end+0xff803730>
  803cc8:	300b883a 	mov	r5,r6
  803ccc:	d9005884 	addi	r4,sp,354
  803cd0:	d9809d15 	stw	r6,628(sp)
  803cd4:	080afcc0 	call	80afcc <__sccl>
  803cd8:	1029883a 	mov	r20,r2
  803cdc:	e0800117 	ldw	r2,4(fp)
  803ce0:	0081050e 	bge	zero,r2,8040f8 <__ssvfscanf_r+0xab8>
  803ce4:	e1000017 	ldw	r4,0(fp)
  803ce8:	20800003 	ldbu	r2,0(r4)
  803cec:	98005926 	beq	r19,zero,803e54 <__ssvfscanf_r+0x814>
  803cf0:	8c40040c 	andi	r17,r17,16
  803cf4:	88005a26 	beq	r17,zero,803e60 <__ssvfscanf_r+0x820>
  803cf8:	9823883a 	mov	r17,r19
  803cfc:	0021883a 	mov	r16,zero
  803d00:	00000106 	br	803d08 <__ssvfscanf_r+0x6c8>
  803d04:	20800003 	ldbu	r2,0(r4)
  803d08:	10803fcc 	andi	r2,r2,255
  803d0c:	d8c05884 	addi	r3,sp,354
  803d10:	1885883a 	add	r2,r3,r2
  803d14:	10800007 	ldb	r2,0(r2)
  803d18:	1000ad26 	beq	r2,zero,803fd0 <__ssvfscanf_r+0x990>
  803d1c:	e0800117 	ldw	r2,4(fp)
  803d20:	21000044 	addi	r4,r4,1
  803d24:	84000044 	addi	r16,r16,1
  803d28:	10bfffc4 	addi	r2,r2,-1
  803d2c:	e0800115 	stw	r2,4(fp)
  803d30:	e1000015 	stw	r4,0(fp)
  803d34:	84c0a026 	beq	r16,r19,803fb8 <__ssvfscanf_r+0x978>
  803d38:	00bff216 	blt	zero,r2,803d04 <__alt_data_end+0xff803d04>
  803d3c:	e00b883a 	mov	r5,fp
  803d40:	b009883a 	mov	r4,r22
  803d44:	080d5a00 	call	80d5a0 <__ssrefill_r>
  803d48:	10009a1e 	bne	r2,zero,803fb4 <__ssvfscanf_r+0x974>
  803d4c:	e1000017 	ldw	r4,0(fp)
  803d50:	003fec06 	br	803d04 <__alt_data_end+0xff803d04>
  803d54:	e0800117 	ldw	r2,4(fp)
  803d58:	d9809d15 	stw	r6,628(sp)
  803d5c:	0080eb0e 	bge	zero,r2,80410c <__ssvfscanf_r+0xacc>
  803d60:	00802074 	movhi	r2,129
  803d64:	10b26e04 	addi	r2,r2,-13896
  803d68:	d880a115 	stw	r2,644(sp)
  803d6c:	d8009e15 	stw	zero,632(sp)
  803d70:	050000c4 	movi	r20,3
  803d74:	003f3606 	br	803a50 <__alt_data_end+0xff803a50>
  803d78:	dd409904 	addi	r21,sp,612
  803d7c:	8c40040c 	andi	r17,r17,16
  803d80:	01800204 	movi	r6,8
  803d84:	000b883a 	mov	r5,zero
  803d88:	a809883a 	mov	r4,r21
  803d8c:	dc409f15 	stw	r17,636(sp)
  803d90:	0802dc40 	call	802dc4 <memset>
  803d94:	dc409f17 	ldw	r17,636(sp)
  803d98:	88006e26 	beq	r17,zero,803f54 <__ssvfscanf_r+0x914>
  803d9c:	0029883a 	mov	r20,zero
  803da0:	0023883a 	mov	r17,zero
  803da4:	08091d00 	call	8091d0 <__locale_mb_cur_max>
  803da8:	14406126 	beq	r2,r17,803f30 <__ssvfscanf_r+0x8f0>
  803dac:	e0800017 	ldw	r2,0(fp)
  803db0:	e0c00117 	ldw	r3,4(fp)
  803db4:	d9000104 	addi	r4,sp,4
  803db8:	12000003 	ldbu	r8,0(r2)
  803dbc:	18ffffc4 	addi	r3,r3,-1
  803dc0:	10800044 	addi	r2,r2,1
  803dc4:	e0c00115 	stw	r3,4(fp)
  803dc8:	e0800015 	stw	r2,0(fp)
  803dcc:	8c000044 	addi	r16,r17,1
  803dd0:	dd400015 	stw	r21,0(sp)
  803dd4:	2463883a 	add	r17,r4,r17
  803dd8:	200d883a 	mov	r6,r4
  803ddc:	a00b883a 	mov	r5,r20
  803de0:	800f883a 	mov	r7,r16
  803de4:	b009883a 	mov	r4,r22
  803de8:	8a000005 	stb	r8,0(r17)
  803dec:	08092840 	call	809284 <_mbrtowc_r>
  803df0:	017fffc4 	movi	r5,-1
  803df4:	11404e26 	beq	r2,r5,803f30 <__ssvfscanf_r+0x8f0>
  803df8:	1000601e 	bne	r2,zero,803f7c <__ssvfscanf_r+0x93c>
  803dfc:	da009f17 	ldw	r8,636(sp)
  803e00:	4000641e 	bne	r8,zero,803f94 <__ssvfscanf_r+0x954>
  803e04:	a0000015 	stw	zero,0(r20)
  803e08:	9425883a 	add	r18,r18,r16
  803e0c:	9967883a 	add	r19,r19,r5
  803e10:	a5000104 	addi	r20,r20,4
  803e14:	e0800117 	ldw	r2,4(fp)
  803e18:	0023883a 	mov	r17,zero
  803e1c:	00804b16 	blt	zero,r2,803f4c <__ssvfscanf_r+0x90c>
  803e20:	e00b883a 	mov	r5,fp
  803e24:	b009883a 	mov	r4,r22
  803e28:	080d5a00 	call	80d5a0 <__ssrefill_r>
  803e2c:	10004726 	beq	r2,zero,803f4c <__ssvfscanf_r+0x90c>
  803e30:	88003f1e 	bne	r17,zero,803f30 <__ssvfscanf_r+0x8f0>
  803e34:	d8c09f17 	ldw	r3,636(sp)
  803e38:	1800031e 	bne	r3,zero,803e48 <__ssvfscanf_r+0x808>
  803e3c:	da00a017 	ldw	r8,640(sp)
  803e40:	42000044 	addi	r8,r8,1
  803e44:	da00a015 	stw	r8,640(sp)
  803e48:	dd009d17 	ldw	r20,628(sp)
  803e4c:	a00d883a 	mov	r6,r20
  803e50:	003e3706 	br	803730 <__alt_data_end+0xff803730>
  803e54:	8c40040c 	andi	r17,r17,16
  803e58:	04ffffc4 	movi	r19,-1
  803e5c:	883fa61e 	bne	r17,zero,803cf8 <__alt_data_end+0xff803cf8>
  803e60:	da009c17 	ldw	r8,624(sp)
  803e64:	9abfffc4 	addi	r10,r19,-1
  803e68:	44000017 	ldw	r16,0(r8)
  803e6c:	44400104 	addi	r17,r8,4
  803e70:	8007883a 	mov	r3,r16
  803e74:	82ab883a 	add	r21,r16,r10
  803e78:	00000306 	br	803e88 <__ssvfscanf_r+0x848>
  803e7c:	e1000017 	ldw	r4,0(fp)
  803e80:	9807883a 	mov	r3,r19
  803e84:	20800003 	ldbu	r2,0(r4)
  803e88:	10803fcc 	andi	r2,r2,255
  803e8c:	d9405884 	addi	r5,sp,354
  803e90:	2885883a 	add	r2,r5,r2
  803e94:	10800007 	ldb	r2,0(r2)
  803e98:	10004b26 	beq	r2,zero,803fc8 <__ssvfscanf_r+0x988>
  803e9c:	e0800117 	ldw	r2,4(fp)
  803ea0:	21400044 	addi	r5,r4,1
  803ea4:	e1400015 	stw	r5,0(fp)
  803ea8:	10bfffc4 	addi	r2,r2,-1
  803eac:	e0800115 	stw	r2,4(fp)
  803eb0:	20800003 	ldbu	r2,0(r4)
  803eb4:	1cc00044 	addi	r19,r3,1
  803eb8:	18800005 	stb	r2,0(r3)
  803ebc:	1d400726 	beq	r3,r21,803edc <__ssvfscanf_r+0x89c>
  803ec0:	e0800117 	ldw	r2,4(fp)
  803ec4:	00bfed16 	blt	zero,r2,803e7c <__alt_data_end+0xff803e7c>
  803ec8:	e00b883a 	mov	r5,fp
  803ecc:	b009883a 	mov	r4,r22
  803ed0:	080d5a00 	call	80d5a0 <__ssrefill_r>
  803ed4:	103fe926 	beq	r2,zero,803e7c <__alt_data_end+0xff803e7c>
  803ed8:	84c01526 	beq	r16,r19,803f30 <__ssvfscanf_r+0x8f0>
  803edc:	9c21c83a 	sub	r16,r19,r16
  803ee0:	803e1726 	beq	r16,zero,803740 <__alt_data_end+0xff803740>
  803ee4:	da00a017 	ldw	r8,640(sp)
  803ee8:	98000005 	stb	zero,0(r19)
  803eec:	dc409c15 	stw	r17,624(sp)
  803ef0:	42000044 	addi	r8,r8,1
  803ef4:	da00a015 	stw	r8,640(sp)
  803ef8:	9425883a 	add	r18,r18,r16
  803efc:	a00d883a 	mov	r6,r20
  803f00:	003e0b06 	br	803730 <__alt_data_end+0xff803730>
  803f04:	017fff84 	movi	r5,-2
  803f08:	11439b1e 	bne	r2,r5,804d78 <__ssvfscanf_r+0x1738>
  803f0c:	8821883a 	mov	r16,r17
  803f10:	e0800117 	ldw	r2,4(fp)
  803f14:	0082e516 	blt	zero,r2,804aac <__ssvfscanf_r+0x146c>
  803f18:	e00b883a 	mov	r5,fp
  803f1c:	b009883a 	mov	r4,r22
  803f20:	080d5a00 	call	80d5a0 <__ssrefill_r>
  803f24:	1002e126 	beq	r2,zero,804aac <__ssvfscanf_r+0x146c>
  803f28:	dc409f17 	ldw	r17,636(sp)
  803f2c:	8002e826 	beq	r16,zero,804ad0 <__ssvfscanf_r+0x1490>
  803f30:	da00a017 	ldw	r8,640(sp)
  803f34:	403e9c26 	beq	r8,zero,8039a8 <__alt_data_end+0xff8039a8>
  803f38:	e080030b 	ldhu	r2,12(fp)
  803f3c:	1080100c 	andi	r2,r2,64
  803f40:	103e991e 	bne	r2,zero,8039a8 <__alt_data_end+0xff8039a8>
  803f44:	4005883a 	mov	r2,r8
  803f48:	003e9806 	br	8039ac <__alt_data_end+0xff8039ac>
  803f4c:	983f951e 	bne	r19,zero,803da4 <__alt_data_end+0xff803da4>
  803f50:	003fb806 	br	803e34 <__alt_data_end+0xff803e34>
  803f54:	da009c17 	ldw	r8,624(sp)
  803f58:	45000017 	ldw	r20,0(r8)
  803f5c:	42000104 	addi	r8,r8,4
  803f60:	da009c15 	stw	r8,624(sp)
  803f64:	003f8e06 	br	803da0 <__alt_data_end+0xff803da0>
  803f68:	e00b883a 	mov	r5,fp
  803f6c:	b009883a 	mov	r4,r22
  803f70:	080d5a00 	call	80d5a0 <__ssrefill_r>
  803f74:	103f3826 	beq	r2,zero,803c58 <__alt_data_end+0xff803c58>
  803f78:	003fed06 	br	803f30 <__alt_data_end+0xff803f30>
  803f7c:	00ffff84 	movi	r3,-2
  803f80:	10c0071e 	bne	r2,r3,803fa0 <__ssvfscanf_r+0x960>
  803f84:	e0800117 	ldw	r2,4(fp)
  803f88:	8023883a 	mov	r17,r16
  803f8c:	00bf8516 	blt	zero,r2,803da4 <__alt_data_end+0xff803da4>
  803f90:	003fa306 	br	803e20 <__alt_data_end+0xff803e20>
  803f94:	9425883a 	add	r18,r18,r16
  803f98:	9cffffc4 	addi	r19,r19,-1
  803f9c:	003f9d06 	br	803e14 <__alt_data_end+0xff803e14>
  803fa0:	da009f17 	ldw	r8,636(sp)
  803fa4:	9425883a 	add	r18,r18,r16
  803fa8:	9cffffc4 	addi	r19,r19,-1
  803fac:	403f9826 	beq	r8,zero,803e10 <__alt_data_end+0xff803e10>
  803fb0:	003f9806 	br	803e14 <__alt_data_end+0xff803e14>
  803fb4:	8023883a 	mov	r17,r16
  803fb8:	8821883a 	mov	r16,r17
  803fbc:	003fce06 	br	803ef8 <__alt_data_end+0xff803ef8>
  803fc0:	803f3d1e 	bne	r16,zero,803cb8 <__alt_data_end+0xff803cb8>
  803fc4:	003fda06 	br	803f30 <__alt_data_end+0xff803f30>
  803fc8:	1827883a 	mov	r19,r3
  803fcc:	003fc306 	br	803edc <__alt_data_end+0xff803edc>
  803fd0:	803fc91e 	bne	r16,zero,803ef8 <__alt_data_end+0xff803ef8>
  803fd4:	003dda06 	br	803740 <__alt_data_end+0xff803740>
  803fd8:	da009c17 	ldw	r8,624(sp)
  803fdc:	df000015 	stw	fp,0(sp)
  803fe0:	980f883a 	mov	r7,r19
  803fe4:	41400017 	ldw	r5,0(r8)
  803fe8:	01800044 	movi	r6,1
  803fec:	b009883a 	mov	r4,r22
  803ff0:	080d6100 	call	80d610 <_sfread_r>
  803ff4:	da009c17 	ldw	r8,624(sp)
  803ff8:	40c00104 	addi	r3,r8,4
  803ffc:	103fcc26 	beq	r2,zero,803f30 <__alt_data_end+0xff803f30>
  804000:	da00a017 	ldw	r8,640(sp)
  804004:	dd009d17 	ldw	r20,628(sp)
  804008:	90a5883a 	add	r18,r18,r2
  80400c:	42000044 	addi	r8,r8,1
  804010:	da00a015 	stw	r8,640(sp)
  804014:	d8c09c15 	stw	r3,624(sp)
  804018:	a00d883a 	mov	r6,r20
  80401c:	003dc406 	br	803730 <__alt_data_end+0xff803730>
  804020:	e00b883a 	mov	r5,fp
  804024:	b009883a 	mov	r4,r22
  804028:	080d5a00 	call	80d5a0 <__ssrefill_r>
  80402c:	103e5226 	beq	r2,zero,803978 <__alt_data_end+0xff803978>
  804030:	003fbf06 	br	803f30 <__alt_data_end+0xff803f30>
  804034:	a0800083 	ldbu	r2,2(r20)
  804038:	8c400094 	ori	r17,r17,2
  80403c:	a5000084 	addi	r20,r20,2
  804040:	10c03fcc 	andi	r3,r2,255
  804044:	003dc706 	br	803764 <__alt_data_end+0xff803764>
  804048:	e0800117 	ldw	r2,4(fp)
  80404c:	88e2b03a 	or	r17,r17,r3
  804050:	00bef716 	blt	zero,r2,803c30 <__alt_data_end+0xff803c30>
  804054:	003e6f06 	br	803a14 <__alt_data_end+0xff803a14>
  804058:	8880004c 	andi	r2,r17,1
  80405c:	10000b1e 	bne	r2,zero,80408c <__ssvfscanf_r+0xa4c>
  804060:	8c40008c 	andi	r17,r17,2
  804064:	88000926 	beq	r17,zero,80408c <__ssvfscanf_r+0xa4c>
  804068:	da009c17 	ldw	r8,624(sp)
  80406c:	9007d7fa 	srai	r3,r18,31
  804070:	dd009d17 	ldw	r20,628(sp)
  804074:	40800017 	ldw	r2,0(r8)
  804078:	42000104 	addi	r8,r8,4
  80407c:	da009c15 	stw	r8,624(sp)
  804080:	14800015 	stw	r18,0(r2)
  804084:	10c00115 	stw	r3,4(r2)
  804088:	003da806 	br	80372c <__alt_data_end+0xff80372c>
  80408c:	da009c17 	ldw	r8,624(sp)
  804090:	dd009d17 	ldw	r20,628(sp)
  804094:	40800017 	ldw	r2,0(r8)
  804098:	42000104 	addi	r8,r8,4
  80409c:	da009c15 	stw	r8,624(sp)
  8040a0:	14800015 	stw	r18,0(r2)
  8040a4:	003da106 	br	80372c <__alt_data_end+0xff80372c>
  8040a8:	e00b883a 	mov	r5,fp
  8040ac:	b009883a 	mov	r4,r22
  8040b0:	080d5a00 	call	80d5a0 <__ssrefill_r>
  8040b4:	103f9e1e 	bne	r2,zero,803f30 <__alt_data_end+0xff803f30>
  8040b8:	b9c00017 	ldw	r7,0(r23)
  8040bc:	05000104 	movi	r20,4
  8040c0:	003e6306 	br	803a50 <__alt_data_end+0xff803a50>
  8040c4:	e00b883a 	mov	r5,fp
  8040c8:	b009883a 	mov	r4,r22
  8040cc:	080d5a00 	call	80d5a0 <__ssrefill_r>
  8040d0:	103f971e 	bne	r2,zero,803f30 <__alt_data_end+0xff803f30>
  8040d4:	b9c00017 	ldw	r7,0(r23)
  8040d8:	003e5706 	br	803a38 <__alt_data_end+0xff803a38>
  8040dc:	e00b883a 	mov	r5,fp
  8040e0:	b009883a 	mov	r4,r22
  8040e4:	080d5a00 	call	80d5a0 <__ssrefill_r>
  8040e8:	103f911e 	bne	r2,zero,803f30 <__alt_data_end+0xff803f30>
  8040ec:	b9c00017 	ldw	r7,0(r23)
  8040f0:	05000084 	movi	r20,2
  8040f4:	003e5606 	br	803a50 <__alt_data_end+0xff803a50>
  8040f8:	e00b883a 	mov	r5,fp
  8040fc:	b009883a 	mov	r4,r22
  804100:	080d5a00 	call	80d5a0 <__ssrefill_r>
  804104:	103ef726 	beq	r2,zero,803ce4 <__alt_data_end+0xff803ce4>
  804108:	003f8906 	br	803f30 <__alt_data_end+0xff803f30>
  80410c:	e00b883a 	mov	r5,fp
  804110:	b009883a 	mov	r4,r22
  804114:	080d5a00 	call	80d5a0 <__ssrefill_r>
  804118:	103f851e 	bne	r2,zero,803f30 <__alt_data_end+0xff803f30>
  80411c:	b9c00017 	ldw	r7,0(r23)
  804120:	003f0f06 	br	803d60 <__alt_data_end+0xff803d60>
  804124:	014000c4 	movi	r5,3
  804128:	a1414a26 	beq	r20,r5,804654 <__ssvfscanf_r+0x1014>
  80412c:	01000104 	movi	r4,4
  804130:	a101f11e 	bne	r20,r4,8048f8 <__ssvfscanf_r+0x12b8>
  804134:	b009883a 	mov	r4,r22
  804138:	08091f40 	call	8091f4 <_localeconv_r>
  80413c:	10800017 	ldw	r2,0(r2)
  804140:	98ffffc4 	addi	r3,r19,-1
  804144:	d880a315 	stw	r2,652(sp)
  804148:	00805704 	movi	r2,348
  80414c:	10c21e2e 	bgeu	r2,r3,8049c8 <__ssvfscanf_r+0x1388>
  804150:	9cffa8c4 	addi	r19,r19,-349
  804154:	dcc0a215 	stw	r19,648(sp)
  804158:	04c05744 	movi	r19,349
  80415c:	8d01e014 	ori	r20,r17,1920
  804160:	0023883a 	mov	r17,zero
  804164:	dc000104 	addi	r16,sp,4
  804168:	8805883a 	mov	r2,r17
  80416c:	0019883a 	mov	r12,zero
  804170:	8023883a 	mov	r17,r16
  804174:	b007883a 	mov	r3,r22
  804178:	9821883a 	mov	r16,r19
  80417c:	002b883a 	mov	r21,zero
  804180:	d800a515 	stw	zero,660(sp)
  804184:	d800a415 	stw	zero,656(sp)
  804188:	d8009f15 	stw	zero,636(sp)
  80418c:	01c01384 	movi	r7,78
  804190:	602d883a 	mov	r22,r12
  804194:	1027883a 	mov	r19,r2
  804198:	e1000017 	ldw	r4,0(fp)
  80419c:	21400003 	ldbu	r5,0(r4)
  8041a0:	28bff544 	addi	r2,r5,-43
  8041a4:	10803fcc 	andi	r2,r2,255
  8041a8:	38810e36 	bltu	r7,r2,8045e4 <__ssvfscanf_r+0xfa4>
  8041ac:	100490ba 	slli	r2,r2,2
  8041b0:	01802034 	movhi	r6,128
  8041b4:	31907104 	addi	r6,r6,16836
  8041b8:	1185883a 	add	r2,r2,r6
  8041bc:	10800017 	ldw	r2,0(r2)
  8041c0:	1000683a 	jmp	r2
  8041c4:	008044bc 	xorhi	r2,zero,274
  8041c8:	008045e4 	muli	r2,zero,279
  8041cc:	008044bc 	xorhi	r2,zero,274
  8041d0:	008045e4 	muli	r2,zero,279
  8041d4:	008045e4 	muli	r2,zero,279
  8041d8:	00804490 	cmplti	r2,zero,274
  8041dc:	00804300 	call	80430 <__alt_mem_sdram_0-0x77fbd0>
  8041e0:	00804300 	call	80430 <__alt_mem_sdram_0-0x77fbd0>
  8041e4:	00804300 	call	80430 <__alt_mem_sdram_0-0x77fbd0>
  8041e8:	00804300 	call	80430 <__alt_mem_sdram_0-0x77fbd0>
  8041ec:	00804300 	call	80430 <__alt_mem_sdram_0-0x77fbd0>
  8041f0:	00804300 	call	80430 <__alt_mem_sdram_0-0x77fbd0>
  8041f4:	00804300 	call	80430 <__alt_mem_sdram_0-0x77fbd0>
  8041f8:	00804300 	call	80430 <__alt_mem_sdram_0-0x77fbd0>
  8041fc:	00804300 	call	80430 <__alt_mem_sdram_0-0x77fbd0>
  804200:	008045e4 	muli	r2,zero,279
  804204:	008045e4 	muli	r2,zero,279
  804208:	008045e4 	muli	r2,zero,279
  80420c:	008045e4 	muli	r2,zero,279
  804210:	008045e4 	muli	r2,zero,279
  804214:	008045e4 	muli	r2,zero,279
  804218:	008045e4 	muli	r2,zero,279
  80421c:	008045d4 	movui	r2,279
  804220:	008045e4 	muli	r2,zero,279
  804224:	008045e4 	muli	r2,zero,279
  804228:	008045e4 	muli	r2,zero,279
  80422c:	00804590 	cmplti	r2,zero,278
  804230:	00804574 	movhi	r2,277
  804234:	008045e4 	muli	r2,zero,279
  804238:	008045e4 	muli	r2,zero,279
  80423c:	00804540 	call	80454 <__alt_mem_sdram_0-0x77fbac>
  804240:	008045e4 	muli	r2,zero,279
  804244:	008045e4 	muli	r2,zero,279
  804248:	008045e4 	muli	r2,zero,279
  80424c:	008045e4 	muli	r2,zero,279
  804250:	00804508 	cmpgei	r2,zero,276
  804254:	008045e4 	muli	r2,zero,279
  804258:	008045e4 	muli	r2,zero,279
  80425c:	008045e4 	muli	r2,zero,279
  804260:	008045e4 	muli	r2,zero,279
  804264:	008045e4 	muli	r2,zero,279
  804268:	008044ec 	andhi	r2,zero,275
  80426c:	008045e4 	muli	r2,zero,279
  804270:	008045e4 	muli	r2,zero,279
  804274:	008045e4 	muli	r2,zero,279
  804278:	008045e4 	muli	r2,zero,279
  80427c:	008044d0 	cmplti	r2,zero,275
  804280:	008045e4 	muli	r2,zero,279
  804284:	008045e4 	muli	r2,zero,279
  804288:	008045e4 	muli	r2,zero,279
  80428c:	008045e4 	muli	r2,zero,279
  804290:	008045e4 	muli	r2,zero,279
  804294:	008045e4 	muli	r2,zero,279
  804298:	008045e4 	muli	r2,zero,279
  80429c:	008045d4 	movui	r2,279
  8042a0:	008045e4 	muli	r2,zero,279
  8042a4:	008045e4 	muli	r2,zero,279
  8042a8:	008045e4 	muli	r2,zero,279
  8042ac:	00804590 	cmplti	r2,zero,278
  8042b0:	00804574 	movhi	r2,277
  8042b4:	008045e4 	muli	r2,zero,279
  8042b8:	008045e4 	muli	r2,zero,279
  8042bc:	00804540 	call	80454 <__alt_mem_sdram_0-0x77fbac>
  8042c0:	008045e4 	muli	r2,zero,279
  8042c4:	008045e4 	muli	r2,zero,279
  8042c8:	008045e4 	muli	r2,zero,279
  8042cc:	008045e4 	muli	r2,zero,279
  8042d0:	00804508 	cmpgei	r2,zero,276
  8042d4:	008045e4 	muli	r2,zero,279
  8042d8:	008045e4 	muli	r2,zero,279
  8042dc:	008045e4 	muli	r2,zero,279
  8042e0:	008045e4 	muli	r2,zero,279
  8042e4:	008045e4 	muli	r2,zero,279
  8042e8:	008044ec 	andhi	r2,zero,275
  8042ec:	008045e4 	muli	r2,zero,279
  8042f0:	008045e4 	muli	r2,zero,279
  8042f4:	008045e4 	muli	r2,zero,279
  8042f8:	008045e4 	muli	r2,zero,279
  8042fc:	008044d0 	cmplti	r2,zero,275
  804300:	a8803fcc 	andi	r2,r21,255
  804304:	1080201c 	xori	r2,r2,128
  804308:	10bfe004 	addi	r2,r2,-128
  80430c:	b085883a 	add	r2,r22,r2
  804310:	10000d1e 	bne	r2,zero,804348 <__ssvfscanf_r+0xd08>
  804314:	00bf9fc4 	movi	r2,-385
  804318:	a0a8703a 	and	r20,r20,r2
  80431c:	89400005 	stb	r5,0(r17)
  804320:	8c400044 	addi	r17,r17,1
  804324:	e0800117 	ldw	r2,4(fp)
  804328:	843fffc4 	addi	r16,r16,-1
  80432c:	94800044 	addi	r18,r18,1
  804330:	10bfffc4 	addi	r2,r2,-1
  804334:	e0800115 	stw	r2,4(fp)
  804338:	0080b40e 	bge	zero,r2,80460c <__ssvfscanf_r+0xfcc>
  80433c:	21000044 	addi	r4,r4,1
  804340:	e1000015 	stw	r4,0(fp)
  804344:	803f941e 	bne	r16,zero,804198 <__alt_data_end+0xff804198>
  804348:	8821883a 	mov	r16,r17
  80434c:	b019883a 	mov	r12,r22
  804350:	9823883a 	mov	r17,r19
  804354:	182d883a 	mov	r22,r3
  804358:	9801961e 	bne	r19,zero,8049b4 <__ssvfscanf_r+0x1374>
  80435c:	633fffc4 	addi	r12,r12,-1
  804360:	00800044 	movi	r2,1
  804364:	1302882e 	bgeu	r2,r12,804d88 <__ssvfscanf_r+0x1748>
  804368:	a8803fcc 	andi	r2,r21,255
  80436c:	1080201c 	xori	r2,r2,128
  804370:	10bfe004 	addi	r2,r2,-128
  804374:	113fffc4 	addi	r4,r2,-1
  804378:	01400184 	movi	r5,6
  80437c:	29001136 	bltu	r5,r4,8043c4 <__ssvfscanf_r+0xd84>
  804380:	01000084 	movi	r4,2
  804384:	2082900e 	bge	r4,r2,804dc8 <__ssvfscanf_r+0x1788>
  804388:	00c000c4 	movi	r3,3
  80438c:	10c00d26 	beq	r2,r3,8043c4 <__ssvfscanf_r+0xd84>
  804390:	9425c83a 	sub	r18,r18,r16
  804394:	1827883a 	mov	r19,r3
  804398:	843fffc4 	addi	r16,r16,-1
  80439c:	81400007 	ldb	r5,0(r16)
  8043a0:	e00d883a 	mov	r6,fp
  8043a4:	b009883a 	mov	r4,r22
  8043a8:	080d4980 	call	80d498 <_sungetc_r>
  8043ac:	a8bfffc4 	addi	r2,r21,-1
  8043b0:	10c03fcc 	andi	r3,r2,255
  8043b4:	8493883a 	add	r9,r16,r18
  8043b8:	102b883a 	mov	r21,r2
  8043bc:	98fff636 	bltu	r19,r3,804398 <__alt_data_end+0xff804398>
  8043c0:	4825883a 	mov	r18,r9
  8043c4:	a080400c 	andi	r2,r20,256
  8043c8:	10001426 	beq	r2,zero,80441c <__ssvfscanf_r+0xddc>
  8043cc:	a081000c 	andi	r2,r20,1024
  8043d0:	1002571e 	bne	r2,zero,804d30 <__ssvfscanf_r+0x16f0>
  8043d4:	817fffc7 	ldb	r5,-1(r16)
  8043d8:	00801944 	movi	r2,101
  8043dc:	84ffffc4 	addi	r19,r16,-1
  8043e0:	957fffc4 	addi	r21,r18,-1
  8043e4:	28800826 	beq	r5,r2,804408 <__ssvfscanf_r+0xdc8>
  8043e8:	00801144 	movi	r2,69
  8043ec:	28800626 	beq	r5,r2,804408 <__ssvfscanf_r+0xdc8>
  8043f0:	e00d883a 	mov	r6,fp
  8043f4:	b009883a 	mov	r4,r22
  8043f8:	080d4980 	call	80d498 <_sungetc_r>
  8043fc:	817fff87 	ldb	r5,-2(r16)
  804400:	84ffff84 	addi	r19,r16,-2
  804404:	957fff84 	addi	r21,r18,-2
  804408:	e00d883a 	mov	r6,fp
  80440c:	b009883a 	mov	r4,r22
  804410:	080d4980 	call	80d498 <_sungetc_r>
  804414:	a825883a 	mov	r18,r21
  804418:	9821883a 	mov	r16,r19
  80441c:	a080040c 	andi	r2,r20,16
  804420:	103e891e 	bne	r2,zero,803e48 <__alt_data_end+0xff803e48>
  804424:	80000005 	stb	zero,0(r16)
  804428:	a081800c 	andi	r2,r20,1536
  80442c:	01010004 	movi	r4,1024
  804430:	1101dd26 	beq	r2,r4,804ba8 <__ssvfscanf_r+0x1568>
  804434:	da00a417 	ldw	r8,656(sp)
  804438:	4001e71e 	bne	r8,zero,804bd8 <__ssvfscanf_r+0x1598>
  80443c:	000d883a 	mov	r6,zero
  804440:	d9400104 	addi	r5,sp,4
  804444:	b009883a 	mov	r4,r22
  804448:	080b2a80 	call	80b2a8 <_strtod_r>
  80444c:	1021883a 	mov	r16,r2
  804450:	a080004c 	andi	r2,r20,1
  804454:	1000021e 	bne	r2,zero,804460 <__ssvfscanf_r+0xe20>
  804458:	a2c0008c 	andi	r11,r20,2
  80445c:	5801e826 	beq	r11,zero,804c00 <__ssvfscanf_r+0x15c0>
  804460:	da009c17 	ldw	r8,624(sp)
  804464:	40800017 	ldw	r2,0(r8)
  804468:	42000104 	addi	r8,r8,4
  80446c:	da009c15 	stw	r8,624(sp)
  804470:	14000015 	stw	r16,0(r2)
  804474:	10c00115 	stw	r3,4(r2)
  804478:	da00a017 	ldw	r8,640(sp)
  80447c:	dd009d17 	ldw	r20,628(sp)
  804480:	42000044 	addi	r8,r8,1
  804484:	da00a015 	stw	r8,640(sp)
  804488:	a00d883a 	mov	r6,r20
  80448c:	003ca806 	br	803730 <__alt_data_end+0xff803730>
  804490:	a080400c 	andi	r2,r20,256
  804494:	103f9a26 	beq	r2,zero,804300 <__alt_data_end+0xff804300>
  804498:	da00a217 	ldw	r8,648(sp)
  80449c:	00bfdfc4 	movi	r2,-129
  8044a0:	a0a8703a 	and	r20,r20,r2
  8044a4:	9cc00044 	addi	r19,r19,1
  8044a8:	403f9e26 	beq	r8,zero,804324 <__alt_data_end+0xff804324>
  8044ac:	423fffc4 	addi	r8,r8,-1
  8044b0:	da00a215 	stw	r8,648(sp)
  8044b4:	84000044 	addi	r16,r16,1
  8044b8:	003f9a06 	br	804324 <__alt_data_end+0xff804324>
  8044bc:	a080200c 	andi	r2,r20,128
  8044c0:	103fa126 	beq	r2,zero,804348 <__alt_data_end+0xff804348>
  8044c4:	00bfdfc4 	movi	r2,-129
  8044c8:	a0a8703a 	and	r20,r20,r2
  8044cc:	003f9306 	br	80431c <__alt_data_end+0xff80431c>
  8044d0:	a8803fcc 	andi	r2,r21,255
  8044d4:	1080201c 	xori	r2,r2,128
  8044d8:	10bfe004 	addi	r2,r2,-128
  8044dc:	020001c4 	movi	r8,7
  8044e0:	123f991e 	bne	r2,r8,804348 <__alt_data_end+0xff804348>
  8044e4:	05400204 	movi	r21,8
  8044e8:	003f8c06 	br	80431c <__alt_data_end+0xff80431c>
  8044ec:	a8803fcc 	andi	r2,r21,255
  8044f0:	1080201c 	xori	r2,r2,128
  8044f4:	10bfe004 	addi	r2,r2,-128
  8044f8:	01800184 	movi	r6,6
  8044fc:	11bf921e 	bne	r2,r6,804348 <__alt_data_end+0xff804348>
  804500:	054001c4 	movi	r21,7
  804504:	003f8506 	br	80431c <__alt_data_end+0xff80431c>
  804508:	b000491e 	bne	r22,zero,804630 <__ssvfscanf_r+0xff0>
  80450c:	9800031e 	bne	r19,zero,80451c <__ssvfscanf_r+0xedc>
  804510:	a081c00c 	andi	r2,r20,1792
  804514:	0181c004 	movi	r6,1792
  804518:	11819f26 	beq	r2,r6,804b98 <__ssvfscanf_r+0x1558>
  80451c:	a8803fcc 	andi	r2,r21,255
  804520:	1080201c 	xori	r2,r2,128
  804524:	10bfe004 	addi	r2,r2,-128
  804528:	01800044 	movi	r6,1
  80452c:	11800226 	beq	r2,r6,804538 <__ssvfscanf_r+0xef8>
  804530:	01800104 	movi	r6,4
  804534:	11bf841e 	bne	r2,r6,804348 <__alt_data_end+0xff804348>
  804538:	ad400044 	addi	r21,r21,1
  80453c:	003f7706 	br	80431c <__alt_data_end+0xff80431c>
  804540:	a8803fcc 	andi	r2,r21,255
  804544:	1080201c 	xori	r2,r2,128
  804548:	10bfe004 	addi	r2,r2,-128
  80454c:	10003c1e 	bne	r2,zero,804640 <__ssvfscanf_r+0x1000>
  804550:	9801141e 	bne	r19,zero,8049a4 <__ssvfscanf_r+0x1364>
  804554:	a081c00c 	andi	r2,r20,1792
  804558:	0181c004 	movi	r6,1792
  80455c:	11818226 	beq	r2,r6,804b68 <__ssvfscanf_r+0x1528>
  804560:	8821883a 	mov	r16,r17
  804564:	b019883a 	mov	r12,r22
  804568:	9823883a 	mov	r17,r19
  80456c:	182d883a 	mov	r22,r3
  804570:	003f7a06 	br	80435c <__alt_data_end+0xff80435c>
  804574:	a8803fcc 	andi	r2,r21,255
  804578:	1080201c 	xori	r2,r2,128
  80457c:	10bfe004 	addi	r2,r2,-128
  804580:	01800084 	movi	r6,2
  804584:	11bf701e 	bne	r2,r6,804348 <__alt_data_end+0xff804348>
  804588:	054000c4 	movi	r21,3
  80458c:	003f6306 	br	80431c <__alt_data_end+0xff80431c>
  804590:	a081400c 	andi	r2,r20,1280
  804594:	01810004 	movi	r6,1024
  804598:	11800326 	beq	r2,r6,8045a8 <__ssvfscanf_r+0xf68>
  80459c:	a184703a 	and	r2,r20,r6
  8045a0:	103f6926 	beq	r2,zero,804348 <__alt_data_end+0xff804348>
  8045a4:	983fee26 	beq	r19,zero,804560 <__alt_data_end+0xff804560>
  8045a8:	a080800c 	andi	r2,r20,512
  8045ac:	1000041e 	bne	r2,zero,8045c0 <__ssvfscanf_r+0xf80>
  8045b0:	da009f17 	ldw	r8,636(sp)
  8045b4:	dc40a515 	stw	r17,660(sp)
  8045b8:	9a27c83a 	sub	r19,r19,r8
  8045bc:	dcc0a415 	stw	r19,656(sp)
  8045c0:	00be1fc4 	movi	r2,-1921
  8045c4:	a0a8703a 	and	r20,r20,r2
  8045c8:	a5006014 	ori	r20,r20,384
  8045cc:	0027883a 	mov	r19,zero
  8045d0:	003f5206 	br	80431c <__alt_data_end+0xff80431c>
  8045d4:	00800044 	movi	r2,1
  8045d8:	b0bf5b1e 	bne	r22,r2,804348 <__alt_data_end+0xff804348>
  8045dc:	05800084 	movi	r22,2
  8045e0:	003f4e06 	br	80431c <__alt_data_end+0xff80431c>
  8045e4:	d980a317 	ldw	r6,652(sp)
  8045e8:	30800003 	ldbu	r2,0(r6)
  8045ec:	29803fcc 	andi	r6,r5,255
  8045f0:	30bf551e 	bne	r6,r2,804348 <__alt_data_end+0xff804348>
  8045f4:	a080800c 	andi	r2,r20,512
  8045f8:	103f5326 	beq	r2,zero,804348 <__alt_data_end+0xff804348>
  8045fc:	023f5fc4 	movi	r8,-641
  804600:	a228703a 	and	r20,r20,r8
  804604:	dcc09f15 	stw	r19,636(sp)
  804608:	003f4406 	br	80431c <__alt_data_end+0xff80431c>
  80460c:	1809883a 	mov	r4,r3
  804610:	e00b883a 	mov	r5,fp
  804614:	d8c0a615 	stw	r3,664(sp)
  804618:	d9c0aa15 	stw	r7,680(sp)
  80461c:	080d5a00 	call	80d5a0 <__ssrefill_r>
  804620:	d8c0a617 	ldw	r3,664(sp)
  804624:	d9c0aa17 	ldw	r7,680(sp)
  804628:	103f4626 	beq	r2,zero,804344 <__alt_data_end+0xff804344>
  80462c:	003f4606 	br	804348 <__alt_data_end+0xff804348>
  804630:	00800084 	movi	r2,2
  804634:	b0bfb91e 	bne	r22,r2,80451c <__alt_data_end+0xff80451c>
  804638:	058000c4 	movi	r22,3
  80463c:	003f3706 	br	80431c <__alt_data_end+0xff80431c>
  804640:	018000c4 	movi	r6,3
  804644:	11bfbc26 	beq	r2,r6,804538 <__alt_data_end+0xff804538>
  804648:	01800144 	movi	r6,5
  80464c:	11bfba26 	beq	r2,r6,804538 <__alt_data_end+0xff804538>
  804650:	003f3d06 	br	804348 <__alt_data_end+0xff804348>
  804654:	98bfffc4 	addi	r2,r19,-1
  804658:	01405704 	movi	r5,348
  80465c:	2880d82e 	bgeu	r5,r2,8049c0 <__ssvfscanf_r+0x1380>
  804660:	99ffa8c4 	addi	r7,r19,-349
  804664:	04c05744 	movi	r19,349
  804668:	8c436014 	ori	r17,r17,3456
  80466c:	9013883a 	mov	r9,r18
  804670:	8825883a 	mov	r18,r17
  804674:	dc409e17 	ldw	r17,632(sp)
  804678:	0029883a 	mov	r20,zero
  80467c:	dc000104 	addi	r16,sp,4
  804680:	05401344 	movi	r21,77
  804684:	02c08004 	movi	r11,512
  804688:	01bf7fc4 	movi	r6,-513
  80468c:	023fdfc4 	movi	r8,-129
  804690:	20bff544 	addi	r2,r4,-43
  804694:	10803fcc 	andi	r2,r2,255
  804698:	a8807236 	bltu	r21,r2,804864 <__ssvfscanf_r+0x1224>
  80469c:	100490ba 	slli	r2,r2,2
  8046a0:	01402034 	movhi	r5,128
  8046a4:	2951ad04 	addi	r5,r5,18100
  8046a8:	1145883a 	add	r2,r2,r5
  8046ac:	10800017 	ldw	r2,0(r2)
  8046b0:	1000683a 	jmp	r2
  8046b4:	008048e8 	cmpgeui	r2,zero,291
  8046b8:	00804864 	muli	r2,zero,289
  8046bc:	008048e8 	cmpgeui	r2,zero,291
  8046c0:	00804864 	muli	r2,zero,289
  8046c4:	00804864 	muli	r2,zero,289
  8046c8:	008048c0 	call	8048c <__alt_mem_sdram_0-0x77fb74>
  8046cc:	008048a0 	cmpeqi	r2,zero,290
  8046d0:	008048a0 	cmpeqi	r2,zero,290
  8046d4:	008048a0 	cmpeqi	r2,zero,290
  8046d8:	008048a0 	cmpeqi	r2,zero,290
  8046dc:	008048a0 	cmpeqi	r2,zero,290
  8046e0:	008048a0 	cmpeqi	r2,zero,290
  8046e4:	008048a0 	cmpeqi	r2,zero,290
  8046e8:	00804848 	cmpgei	r2,zero,289
  8046ec:	00804848 	cmpgei	r2,zero,289
  8046f0:	00804864 	muli	r2,zero,289
  8046f4:	00804864 	muli	r2,zero,289
  8046f8:	00804864 	muli	r2,zero,289
  8046fc:	00804864 	muli	r2,zero,289
  804700:	00804864 	muli	r2,zero,289
  804704:	00804864 	muli	r2,zero,289
  804708:	00804864 	muli	r2,zero,289
  80470c:	00804834 	movhi	r2,288
  804710:	00804834 	movhi	r2,288
  804714:	00804834 	movhi	r2,288
  804718:	00804834 	movhi	r2,288
  80471c:	00804834 	movhi	r2,288
  804720:	00804834 	movhi	r2,288
  804724:	00804864 	muli	r2,zero,289
  804728:	00804864 	muli	r2,zero,289
  80472c:	00804864 	muli	r2,zero,289
  804730:	00804864 	muli	r2,zero,289
  804734:	00804864 	muli	r2,zero,289
  804738:	00804864 	muli	r2,zero,289
  80473c:	00804864 	muli	r2,zero,289
  804740:	00804864 	muli	r2,zero,289
  804744:	00804864 	muli	r2,zero,289
  804748:	00804864 	muli	r2,zero,289
  80474c:	00804864 	muli	r2,zero,289
  804750:	00804864 	muli	r2,zero,289
  804754:	00804864 	muli	r2,zero,289
  804758:	00804864 	muli	r2,zero,289
  80475c:	00804864 	muli	r2,zero,289
  804760:	00804864 	muli	r2,zero,289
  804764:	00804864 	muli	r2,zero,289
  804768:	008047ec 	andhi	r2,zero,287
  80476c:	00804864 	muli	r2,zero,289
  804770:	00804864 	muli	r2,zero,289
  804774:	00804864 	muli	r2,zero,289
  804778:	00804864 	muli	r2,zero,289
  80477c:	00804864 	muli	r2,zero,289
  804780:	00804864 	muli	r2,zero,289
  804784:	00804864 	muli	r2,zero,289
  804788:	00804864 	muli	r2,zero,289
  80478c:	00804834 	movhi	r2,288
  804790:	00804834 	movhi	r2,288
  804794:	00804834 	movhi	r2,288
  804798:	00804834 	movhi	r2,288
  80479c:	00804834 	movhi	r2,288
  8047a0:	00804834 	movhi	r2,288
  8047a4:	00804864 	muli	r2,zero,289
  8047a8:	00804864 	muli	r2,zero,289
  8047ac:	00804864 	muli	r2,zero,289
  8047b0:	00804864 	muli	r2,zero,289
  8047b4:	00804864 	muli	r2,zero,289
  8047b8:	00804864 	muli	r2,zero,289
  8047bc:	00804864 	muli	r2,zero,289
  8047c0:	00804864 	muli	r2,zero,289
  8047c4:	00804864 	muli	r2,zero,289
  8047c8:	00804864 	muli	r2,zero,289
  8047cc:	00804864 	muli	r2,zero,289
  8047d0:	00804864 	muli	r2,zero,289
  8047d4:	00804864 	muli	r2,zero,289
  8047d8:	00804864 	muli	r2,zero,289
  8047dc:	00804864 	muli	r2,zero,289
  8047e0:	00804864 	muli	r2,zero,289
  8047e4:	00804864 	muli	r2,zero,289
  8047e8:	008047ec 	andhi	r2,zero,287
  8047ec:	9081800c 	andi	r2,r18,1536
  8047f0:	12c01c1e 	bne	r2,r11,804864 <__ssvfscanf_r+0x1224>
  8047f4:	91a4703a 	and	r18,r18,r6
  8047f8:	94814014 	ori	r18,r18,1280
  8047fc:	04400404 	movi	r17,16
  804800:	81000005 	stb	r4,0(r16)
  804804:	84000044 	addi	r16,r16,1
  804808:	e0800117 	ldw	r2,4(fp)
  80480c:	10bfffc4 	addi	r2,r2,-1
  804810:	e0800115 	stw	r2,4(fp)
  804814:	0080540e 	bge	zero,r2,804968 <__ssvfscanf_r+0x1328>
  804818:	18c00044 	addi	r3,r3,1
  80481c:	e0c00015 	stw	r3,0(fp)
  804820:	9cffffc4 	addi	r19,r19,-1
  804824:	98000f26 	beq	r19,zero,804864 <__ssvfscanf_r+0x1224>
  804828:	e0c00017 	ldw	r3,0(fp)
  80482c:	19000003 	ldbu	r4,0(r3)
  804830:	003f9706 	br	804690 <__alt_data_end+0xff804690>
  804834:	00800284 	movi	r2,10
  804838:	14400a0e 	bge	r2,r17,804864 <__ssvfscanf_r+0x1224>
  80483c:	00bd1fc4 	movi	r2,-2945
  804840:	90a4703a 	and	r18,r18,r2
  804844:	003fee06 	br	804800 <__alt_data_end+0xff804800>
  804848:	014020b4 	movhi	r5,130
  80484c:	8c63883a 	add	r17,r17,r17
  804850:	29715b84 	addi	r5,r5,-14994
  804854:	2c45883a 	add	r2,r5,r17
  804858:	1440000f 	ldh	r17,0(r2)
  80485c:	00800204 	movi	r2,8
  804860:	147ff616 	blt	r2,r17,80483c <__alt_data_end+0xff80483c>
  804864:	dc409e15 	stw	r17,632(sp)
  804868:	9023883a 	mov	r17,r18
  80486c:	8880400c 	andi	r2,r17,256
  804870:	4825883a 	mov	r18,r9
  804874:	10000426 	beq	r2,zero,804888 <__ssvfscanf_r+0x1248>
  804878:	d9800104 	addi	r6,sp,4
  80487c:	3400be36 	bltu	r6,r16,804b78 <__ssvfscanf_r+0x1538>
  804880:	da000104 	addi	r8,sp,4
  804884:	443bae26 	beq	r8,r16,803740 <__alt_data_end+0xff803740>
  804888:	8880040c 	andi	r2,r17,16
  80488c:	10009326 	beq	r2,zero,804adc <__ssvfscanf_r+0x149c>
  804890:	d8800104 	addi	r2,sp,4
  804894:	80a1c83a 	sub	r16,r16,r2
  804898:	8521883a 	add	r16,r16,r20
  80489c:	003d0606 	br	803cb8 <__alt_data_end+0xff803cb8>
  8048a0:	014020b4 	movhi	r5,130
  8048a4:	8c63883a 	add	r17,r17,r17
  8048a8:	29715b84 	addi	r5,r5,-14994
  8048ac:	2c45883a 	add	r2,r5,r17
  8048b0:	1440000f 	ldh	r17,0(r2)
  8048b4:	00bd1fc4 	movi	r2,-2945
  8048b8:	90a4703a 	and	r18,r18,r2
  8048bc:	003fd006 	br	804800 <__alt_data_end+0xff804800>
  8048c0:	9082000c 	andi	r2,r18,2048
  8048c4:	103fce26 	beq	r2,zero,804800 <__alt_data_end+0xff804800>
  8048c8:	8800021e 	bne	r17,zero,8048d4 <__ssvfscanf_r+0x1294>
  8048cc:	94808014 	ori	r18,r18,512
  8048d0:	04400204 	movi	r17,8
  8048d4:	9081000c 	andi	r2,r18,1024
  8048d8:	10009426 	beq	r2,zero,804b2c <__ssvfscanf_r+0x14ec>
  8048dc:	00be9fc4 	movi	r2,-1409
  8048e0:	90a4703a 	and	r18,r18,r2
  8048e4:	003fc606 	br	804800 <__alt_data_end+0xff804800>
  8048e8:	9080200c 	andi	r2,r18,128
  8048ec:	103fdd26 	beq	r2,zero,804864 <__alt_data_end+0xff804864>
  8048f0:	9224703a 	and	r18,r18,r8
  8048f4:	003fc206 	br	804800 <__alt_data_end+0xff804800>
  8048f8:	9800011e 	bne	r19,zero,804900 <__ssvfscanf_r+0x12c0>
  8048fc:	04ffffc4 	movi	r19,-1
  804900:	8900004c 	andi	r4,r17,1
  804904:	20005b1e 	bne	r4,zero,804a74 <__ssvfscanf_r+0x1434>
  804908:	8c40040c 	andi	r17,r17,16
  80490c:	88003026 	beq	r17,zero,8049d0 <__ssvfscanf_r+0x1390>
  804910:	0021883a 	mov	r16,zero
  804914:	00000306 	br	804924 <__ssvfscanf_r+0x12e4>
  804918:	18800003 	ldbu	r2,0(r3)
  80491c:	3885883a 	add	r2,r7,r2
  804920:	10800043 	ldbu	r2,1(r2)
  804924:	1080020c 	andi	r2,r2,8
  804928:	103ce31e 	bne	r2,zero,803cb8 <__alt_data_end+0xff803cb8>
  80492c:	e0800117 	ldw	r2,4(fp)
  804930:	18c00044 	addi	r3,r3,1
  804934:	84000044 	addi	r16,r16,1
  804938:	10bfffc4 	addi	r2,r2,-1
  80493c:	e0800115 	stw	r2,4(fp)
  804940:	e0c00015 	stw	r3,0(fp)
  804944:	84fcdc26 	beq	r16,r19,803cb8 <__alt_data_end+0xff803cb8>
  804948:	00bff316 	blt	zero,r2,804918 <__alt_data_end+0xff804918>
  80494c:	e00b883a 	mov	r5,fp
  804950:	b009883a 	mov	r4,r22
  804954:	080d5a00 	call	80d5a0 <__ssrefill_r>
  804958:	103cd71e 	bne	r2,zero,803cb8 <__alt_data_end+0xff803cb8>
  80495c:	b9c00017 	ldw	r7,0(r23)
  804960:	e0c00017 	ldw	r3,0(fp)
  804964:	003fec06 	br	804918 <__alt_data_end+0xff804918>
  804968:	e00b883a 	mov	r5,fp
  80496c:	b009883a 	mov	r4,r22
  804970:	d980a715 	stw	r6,668(sp)
  804974:	d9c0aa15 	stw	r7,680(sp)
  804978:	da00a815 	stw	r8,672(sp)
  80497c:	da40a915 	stw	r9,676(sp)
  804980:	dac0a615 	stw	r11,664(sp)
  804984:	080d5a00 	call	80d5a0 <__ssrefill_r>
  804988:	d980a717 	ldw	r6,668(sp)
  80498c:	d9c0aa17 	ldw	r7,680(sp)
  804990:	da00a817 	ldw	r8,672(sp)
  804994:	da40a917 	ldw	r9,676(sp)
  804998:	dac0a617 	ldw	r11,664(sp)
  80499c:	103fa026 	beq	r2,zero,804820 <__alt_data_end+0xff804820>
  8049a0:	003fb006 	br	804864 <__alt_data_end+0xff804864>
  8049a4:	8821883a 	mov	r16,r17
  8049a8:	b019883a 	mov	r12,r22
  8049ac:	9823883a 	mov	r17,r19
  8049b0:	182d883a 	mov	r22,r3
  8049b4:	00bfbfc4 	movi	r2,-257
  8049b8:	a0a8703a 	and	r20,r20,r2
  8049bc:	003e6706 	br	80435c <__alt_data_end+0xff80435c>
  8049c0:	000f883a 	mov	r7,zero
  8049c4:	003f2806 	br	804668 <__alt_data_end+0xff804668>
  8049c8:	d800a215 	stw	zero,648(sp)
  8049cc:	003de306 	br	80415c <__alt_data_end+0xff80415c>
  8049d0:	da009c17 	ldw	r8,624(sp)
  8049d4:	9abfffc4 	addi	r10,r19,-1
  8049d8:	44400017 	ldw	r17,0(r8)
  8049dc:	44000104 	addi	r16,r8,4
  8049e0:	880b883a 	mov	r5,r17
  8049e4:	8aa9883a 	add	r20,r17,r10
  8049e8:	00000606 	br	804a04 <__ssvfscanf_r+0x13c4>
  8049ec:	e0c00017 	ldw	r3,0(fp)
  8049f0:	b9000017 	ldw	r4,0(r23)
  8049f4:	a80b883a 	mov	r5,r21
  8049f8:	18800003 	ldbu	r2,0(r3)
  8049fc:	2085883a 	add	r2,r4,r2
  804a00:	10800043 	ldbu	r2,1(r2)
  804a04:	1080020c 	andi	r2,r2,8
  804a08:	1000551e 	bne	r2,zero,804b60 <__ssvfscanf_r+0x1520>
  804a0c:	e0800117 	ldw	r2,4(fp)
  804a10:	19000044 	addi	r4,r3,1
  804a14:	e1000015 	stw	r4,0(fp)
  804a18:	10bfffc4 	addi	r2,r2,-1
  804a1c:	e0800115 	stw	r2,4(fp)
  804a20:	18800003 	ldbu	r2,0(r3)
  804a24:	2d400044 	addi	r21,r5,1
  804a28:	a827883a 	mov	r19,r21
  804a2c:	28800005 	stb	r2,0(r5)
  804a30:	2d000626 	beq	r5,r20,804a4c <__ssvfscanf_r+0x140c>
  804a34:	e0800117 	ldw	r2,4(fp)
  804a38:	00bfec16 	blt	zero,r2,8049ec <__alt_data_end+0xff8049ec>
  804a3c:	e00b883a 	mov	r5,fp
  804a40:	b009883a 	mov	r4,r22
  804a44:	080d5a00 	call	80d5a0 <__ssrefill_r>
  804a48:	103fe826 	beq	r2,zero,8049ec <__alt_data_end+0xff8049ec>
  804a4c:	da00a017 	ldw	r8,640(sp)
  804a50:	dd009d17 	ldw	r20,628(sp)
  804a54:	9c63c83a 	sub	r17,r19,r17
  804a58:	42000044 	addi	r8,r8,1
  804a5c:	98000005 	stb	zero,0(r19)
  804a60:	9465883a 	add	r18,r18,r17
  804a64:	da00a015 	stw	r8,640(sp)
  804a68:	dc009c15 	stw	r16,624(sp)
  804a6c:	a00d883a 	mov	r6,r20
  804a70:	003b2f06 	br	803730 <__alt_data_end+0xff803730>
  804a74:	dd409904 	addi	r21,sp,612
  804a78:	8c40040c 	andi	r17,r17,16
  804a7c:	01800204 	movi	r6,8
  804a80:	000b883a 	mov	r5,zero
  804a84:	a809883a 	mov	r4,r21
  804a88:	0802dc40 	call	802dc4 <memset>
  804a8c:	8800401e 	bne	r17,zero,804b90 <__ssvfscanf_r+0x1550>
  804a90:	da009c17 	ldw	r8,624(sp)
  804a94:	45000017 	ldw	r20,0(r8)
  804a98:	42000104 	addi	r8,r8,4
  804a9c:	da009c15 	stw	r8,624(sp)
  804aa0:	000d883a 	mov	r6,zero
  804aa4:	3021883a 	mov	r16,r6
  804aa8:	dc409f15 	stw	r17,636(sp)
  804aac:	e0800017 	ldw	r2,0(fp)
  804ab0:	b8c00017 	ldw	r3,0(r23)
  804ab4:	10800003 	ldbu	r2,0(r2)
  804ab8:	1885883a 	add	r2,r3,r2
  804abc:	10800043 	ldbu	r2,1(r2)
  804ac0:	1080020c 	andi	r2,r2,8
  804ac4:	1000011e 	bne	r2,zero,804acc <__ssvfscanf_r+0x148c>
  804ac8:	9800701e 	bne	r19,zero,804c8c <__ssvfscanf_r+0x164c>
  804acc:	dc409f17 	ldw	r17,636(sp)
  804ad0:	883cdd1e 	bne	r17,zero,803e48 <__alt_data_end+0xff803e48>
  804ad4:	a0000015 	stw	zero,0(r20)
  804ad8:	003cd806 	br	803e3c <__alt_data_end+0xff803e3c>
  804adc:	d9c09e17 	ldw	r7,632(sp)
  804ae0:	da00a117 	ldw	r8,644(sp)
  804ae4:	000d883a 	mov	r6,zero
  804ae8:	d9400104 	addi	r5,sp,4
  804aec:	b009883a 	mov	r4,r22
  804af0:	80000005 	stb	zero,0(r16)
  804af4:	403ee83a 	callr	r8
  804af8:	88c0080c 	andi	r3,r17,32
  804afc:	1800121e 	bne	r3,zero,804b48 <__ssvfscanf_r+0x1508>
  804b00:	88c0010c 	andi	r3,r17,4
  804b04:	18004d26 	beq	r3,zero,804c3c <__ssvfscanf_r+0x15fc>
  804b08:	da009c17 	ldw	r8,624(sp)
  804b0c:	40c00017 	ldw	r3,0(r8)
  804b10:	42000104 	addi	r8,r8,4
  804b14:	da009c15 	stw	r8,624(sp)
  804b18:	1880000d 	sth	r2,0(r3)
  804b1c:	da00a017 	ldw	r8,640(sp)
  804b20:	42000044 	addi	r8,r8,1
  804b24:	da00a015 	stw	r8,640(sp)
  804b28:	003f5906 	br	804890 <__alt_data_end+0xff804890>
  804b2c:	00bf1fc4 	movi	r2,-897
  804b30:	90a4703a 	and	r18,r18,r2
  804b34:	38000226 	beq	r7,zero,804b40 <__ssvfscanf_r+0x1500>
  804b38:	39ffffc4 	addi	r7,r7,-1
  804b3c:	9cc00044 	addi	r19,r19,1
  804b40:	a5000044 	addi	r20,r20,1
  804b44:	003f3006 	br	804808 <__alt_data_end+0xff804808>
  804b48:	da009c17 	ldw	r8,624(sp)
  804b4c:	40c00017 	ldw	r3,0(r8)
  804b50:	42000104 	addi	r8,r8,4
  804b54:	da009c15 	stw	r8,624(sp)
  804b58:	18800015 	stw	r2,0(r3)
  804b5c:	003fef06 	br	804b1c <__alt_data_end+0xff804b1c>
  804b60:	2827883a 	mov	r19,r5
  804b64:	003fb906 	br	804a4c <__alt_data_end+0xff804a4c>
  804b68:	01be1fc4 	movi	r6,-1921
  804b6c:	a1a8703a 	and	r20,r20,r6
  804b70:	05400044 	movi	r21,1
  804b74:	003de906 	br	80431c <__alt_data_end+0xff80431c>
  804b78:	817fffc7 	ldb	r5,-1(r16)
  804b7c:	e00d883a 	mov	r6,fp
  804b80:	b009883a 	mov	r4,r22
  804b84:	843fffc4 	addi	r16,r16,-1
  804b88:	080d4980 	call	80d498 <_sungetc_r>
  804b8c:	003f3c06 	br	804880 <__alt_data_end+0xff804880>
  804b90:	dd009b04 	addi	r20,sp,620
  804b94:	003fc206 	br	804aa0 <__alt_data_end+0xff804aa0>
  804b98:	00be1fc4 	movi	r2,-1921
  804b9c:	a0a8703a 	and	r20,r20,r2
  804ba0:	05800044 	movi	r22,1
  804ba4:	003ddd06 	br	80431c <__alt_data_end+0xff80431c>
  804ba8:	d8c09f17 	ldw	r3,636(sp)
  804bac:	88e3c83a 	sub	r17,r17,r3
  804bb0:	044dc83a 	sub	r6,zero,r17
  804bb4:	883e2126 	beq	r17,zero,80443c <__alt_data_end+0xff80443c>
  804bb8:	d88055c4 	addi	r2,sp,343
  804bbc:	80800136 	bltu	r16,r2,804bc4 <__ssvfscanf_r+0x1584>
  804bc0:	dc005584 	addi	r16,sp,342
  804bc4:	014020b4 	movhi	r5,130
  804bc8:	29715a04 	addi	r5,r5,-15000
  804bcc:	8009883a 	mov	r4,r16
  804bd0:	080b0fc0 	call	80b0fc <sprintf>
  804bd4:	003e1906 	br	80443c <__alt_data_end+0xff80443c>
  804bd8:	d8c0a517 	ldw	r3,660(sp)
  804bdc:	000d883a 	mov	r6,zero
  804be0:	01c00284 	movi	r7,10
  804be4:	19400044 	addi	r5,r3,1
  804be8:	b009883a 	mov	r4,r22
  804bec:	080c9b80 	call	80c9b8 <_strtol_r>
  804bf0:	da00a417 	ldw	r8,656(sp)
  804bf4:	dc00a517 	ldw	r16,660(sp)
  804bf8:	120dc83a 	sub	r6,r2,r8
  804bfc:	003fee06 	br	804bb8 <__alt_data_end+0xff804bb8>
  804c00:	da009c17 	ldw	r8,624(sp)
  804c04:	180b883a 	mov	r5,r3
  804c08:	8009883a 	mov	r4,r16
  804c0c:	45000017 	ldw	r20,0(r8)
  804c10:	44400104 	addi	r17,r8,4
  804c14:	d8c0a615 	stw	r3,664(sp)
  804c18:	080af580 	call	80af58 <__fpclassifyd>
  804c1c:	d8c0a617 	ldw	r3,664(sp)
  804c20:	10006426 	beq	r2,zero,804db4 <__ssvfscanf_r+0x1774>
  804c24:	8009883a 	mov	r4,r16
  804c28:	180b883a 	mov	r5,r3
  804c2c:	0817e440 	call	817e44 <__truncdfsf2>
  804c30:	a0800015 	stw	r2,0(r20)
  804c34:	dc409c15 	stw	r17,624(sp)
  804c38:	003e0f06 	br	804478 <__alt_data_end+0xff804478>
  804c3c:	88c0004c 	andi	r3,r17,1
  804c40:	183fc11e 	bne	r3,zero,804b48 <__alt_data_end+0xff804b48>
  804c44:	8c40008c 	andi	r17,r17,2
  804c48:	883fbf26 	beq	r17,zero,804b48 <__alt_data_end+0xff804b48>
  804c4c:	da00a117 	ldw	r8,644(sp)
  804c50:	00802074 	movhi	r2,129
  804c54:	10b3c404 	addi	r2,r2,-12528
  804c58:	d9c09e17 	ldw	r7,632(sp)
  804c5c:	000d883a 	mov	r6,zero
  804c60:	d9400104 	addi	r5,sp,4
  804c64:	b009883a 	mov	r4,r22
  804c68:	40806226 	beq	r8,r2,804df4 <__ssvfscanf_r+0x17b4>
  804c6c:	080cc0c0 	call	80cc0c <_strtoll_r>
  804c70:	da009c17 	ldw	r8,624(sp)
  804c74:	41000017 	ldw	r4,0(r8)
  804c78:	42000104 	addi	r8,r8,4
  804c7c:	da009c15 	stw	r8,624(sp)
  804c80:	20800015 	stw	r2,0(r4)
  804c84:	20c00115 	stw	r3,4(r4)
  804c88:	003fa406 	br	804b1c <__alt_data_end+0xff804b1c>
  804c8c:	08091d00 	call	8091d0 <__locale_mb_cur_max>
  804c90:	80bca726 	beq	r16,r2,803f30 <__alt_data_end+0xff803f30>
  804c94:	e0800017 	ldw	r2,0(fp)
  804c98:	e1000117 	ldw	r4,4(fp)
  804c9c:	d8c00104 	addi	r3,sp,4
  804ca0:	12000003 	ldbu	r8,0(r2)
  804ca4:	213fffc4 	addi	r4,r4,-1
  804ca8:	10800044 	addi	r2,r2,1
  804cac:	e1000115 	stw	r4,4(fp)
  804cb0:	e0800015 	stw	r2,0(fp)
  804cb4:	84400044 	addi	r17,r16,1
  804cb8:	dd400015 	stw	r21,0(sp)
  804cbc:	1c21883a 	add	r16,r3,r16
  804cc0:	b009883a 	mov	r4,r22
  804cc4:	880f883a 	mov	r7,r17
  804cc8:	180d883a 	mov	r6,r3
  804ccc:	a00b883a 	mov	r5,r20
  804cd0:	82000005 	stb	r8,0(r16)
  804cd4:	08092840 	call	809284 <_mbrtowc_r>
  804cd8:	013fffc4 	movi	r4,-1
  804cdc:	113c9426 	beq	r2,r4,803f30 <__alt_data_end+0xff803f30>
  804ce0:	103c881e 	bne	r2,zero,803f04 <__alt_data_end+0xff803f04>
  804ce4:	a0000015 	stw	zero,0(r20)
  804ce8:	0009883a 	mov	r4,zero
  804cec:	08091180 	call	809118 <iswspace>
  804cf0:	10001a26 	beq	r2,zero,804d5c <__ssvfscanf_r+0x171c>
  804cf4:	8821883a 	mov	r16,r17
  804cf8:	dc409f17 	ldw	r17,636(sp)
  804cfc:	803f7426 	beq	r16,zero,804ad0 <__alt_data_end+0xff804ad0>
  804d00:	843fffc4 	addi	r16,r16,-1
  804d04:	d9800104 	addi	r6,sp,4
  804d08:	342b883a 	add	r21,r6,r16
  804d0c:	00000106 	br	804d14 <__ssvfscanf_r+0x16d4>
  804d10:	843fffc4 	addi	r16,r16,-1
  804d14:	a9400003 	ldbu	r5,0(r21)
  804d18:	e00d883a 	mov	r6,fp
  804d1c:	b009883a 	mov	r4,r22
  804d20:	080d4980 	call	80d498 <_sungetc_r>
  804d24:	ad7fffc4 	addi	r21,r21,-1
  804d28:	803ff91e 	bne	r16,zero,804d10 <__alt_data_end+0xff804d10>
  804d2c:	003f6806 	br	804ad0 <__alt_data_end+0xff804ad0>
  804d30:	d9800104 	addi	r6,sp,4
  804d34:	802b883a 	mov	r21,r16
  804d38:	343a812e 	bgeu	r6,r16,803740 <__alt_data_end+0xff803740>
  804d3c:	ad7fffc4 	addi	r21,r21,-1
  804d40:	a9400007 	ldb	r5,0(r21)
  804d44:	e00d883a 	mov	r6,fp
  804d48:	b009883a 	mov	r4,r22
  804d4c:	080d4980 	call	80d498 <_sungetc_r>
  804d50:	da000104 	addi	r8,sp,4
  804d54:	457ff91e 	bne	r8,r21,804d3c <__alt_data_end+0xff804d3c>
  804d58:	003a7906 	br	803740 <__alt_data_end+0xff803740>
  804d5c:	da009f17 	ldw	r8,636(sp)
  804d60:	9465883a 	add	r18,r18,r17
  804d64:	9cffffc4 	addi	r19,r19,-1
  804d68:	4000051e 	bne	r8,zero,804d80 <__ssvfscanf_r+0x1740>
  804d6c:	a5000104 	addi	r20,r20,4
  804d70:	0021883a 	mov	r16,zero
  804d74:	003c6606 	br	803f10 <__alt_data_end+0xff803f10>
  804d78:	a1000017 	ldw	r4,0(r20)
  804d7c:	003fdb06 	br	804cec <__alt_data_end+0xff804cec>
  804d80:	0021883a 	mov	r16,zero
  804d84:	003c6206 	br	803f10 <__alt_data_end+0xff803f10>
  804d88:	d8800104 	addi	r2,sp,4
  804d8c:	802b883a 	mov	r21,r16
  804d90:	143a6b2e 	bgeu	r2,r16,803740 <__alt_data_end+0xff803740>
  804d94:	ad7fffc4 	addi	r21,r21,-1
  804d98:	a9400007 	ldb	r5,0(r21)
  804d9c:	e00d883a 	mov	r6,fp
  804da0:	b009883a 	mov	r4,r22
  804da4:	080d4980 	call	80d498 <_sungetc_r>
  804da8:	d8c00104 	addi	r3,sp,4
  804dac:	1d7ff91e 	bne	r3,r21,804d94 <__alt_data_end+0xff804d94>
  804db0:	003a6306 	br	803740 <__alt_data_end+0xff803740>
  804db4:	0009883a 	mov	r4,zero
  804db8:	080b09c0 	call	80b09c <nanf>
  804dbc:	a0800015 	stw	r2,0(r20)
  804dc0:	dc409c15 	stw	r17,624(sp)
  804dc4:	003dac06 	br	804478 <__alt_data_end+0xff804478>
  804dc8:	d9000104 	addi	r4,sp,4
  804dcc:	802b883a 	mov	r21,r16
  804dd0:	243a5b2e 	bgeu	r4,r16,803740 <__alt_data_end+0xff803740>
  804dd4:	ad7fffc4 	addi	r21,r21,-1
  804dd8:	a9400007 	ldb	r5,0(r21)
  804ddc:	e00d883a 	mov	r6,fp
  804de0:	b009883a 	mov	r4,r22
